
final_project.elf:     file format elf32-littlenios2
final_project.elf
architecture: nios2:r1, flags 0x00000112:
EXEC_P, HAS_SYMS, D_PAGED
start address 0x08000230

Program Header:
    LOAD off    0x00001000 vaddr 0x08000000 paddr 0x08000000 align 2**12
         filesz 0x00000020 memsz 0x00000020 flags r-x
    LOAD off    0x00001020 vaddr 0x08000020 paddr 0x08000020 align 2**12
         filesz 0x00016ea8 memsz 0x00016ea8 flags r-x
    LOAD off    0x00017ec8 vaddr 0x08016ec8 paddr 0x08018a2c align 2**12
         filesz 0x00001b64 memsz 0x00001b64 flags rw-
    LOAD off    0x0001a590 vaddr 0x0801a590 paddr 0x0801a590 align 2**12
         filesz 0x00000000 memsz 0x000002ec flags rw-

Sections:
Idx Name          Size      VMA       LMA       File off  Algn
  0 .entry        00000020  08000000  08000000  00001000  2**5
                  CONTENTS, ALLOC, LOAD, READONLY, CODE
  1 .exceptions   00000210  08000020  08000020  00001020  2**2
                  CONTENTS, ALLOC, LOAD, READONLY, CODE
  2 .text         000163c8  08000230  08000230  00001230  2**2
                  CONTENTS, ALLOC, LOAD, READONLY, CODE
  3 .rodata       000008d0  080165f8  080165f8  000175f8  2**2
                  CONTENTS, ALLOC, LOAD, READONLY, DATA
  4 .rwdata       00001b64  08016ec8  08018a2c  00017ec8  2**2
                  CONTENTS, ALLOC, LOAD, DATA, SMALL_DATA
  5 .bss          000002ec  0801a590  0801a590  0001a590  2**2
                  ALLOC, SMALL_DATA
  6 .onchip_memory2_0 00000000  00000000  00000000  00019a2c  2**0
                  CONTENTS
  7 .sdram        00000000  0801a87c  0801a87c  00019a2c  2**0
                  CONTENTS
  8 .comment      00000023  00000000  00000000  00019a2c  2**0
                  CONTENTS, READONLY
  9 .debug_aranges 000012a0  00000000  00000000  00019a50  2**3
                  CONTENTS, READONLY, DEBUGGING
 10 .debug_info   00029f99  00000000  00000000  0001acf0  2**0
                  CONTENTS, READONLY, DEBUGGING
 11 .debug_abbrev 0000b32b  00000000  00000000  00044c89  2**0
                  CONTENTS, READONLY, DEBUGGING
 12 .debug_line   0000e493  00000000  00000000  0004ffb4  2**0
                  CONTENTS, READONLY, DEBUGGING
 13 .debug_frame  00002d54  00000000  00000000  0005e448  2**2
                  CONTENTS, READONLY, DEBUGGING
 14 .debug_str    00004c58  00000000  00000000  0006119c  2**0
                  CONTENTS, READONLY, DEBUGGING
 15 .debug_loc    0001ca8e  00000000  00000000  00065df4  2**0
                  CONTENTS, READONLY, DEBUGGING
 16 .debug_alt_sim_info 00000040  00000000  00000000  00082884  2**2
                  CONTENTS, READONLY, DEBUGGING
 17 .debug_ranges 000020c0  00000000  00000000  000828c8  2**3
                  CONTENTS, READONLY, DEBUGGING
 18 .thread_model 00000003  00000000  00000000  000888d2  2**0
                  CONTENTS, READONLY
 19 .cpu          0000000c  00000000  00000000  000888d5  2**0
                  CONTENTS, READONLY
 20 .qsys         00000001  00000000  00000000  000888e1  2**0
                  CONTENTS, READONLY
 21 .simulation_enabled 00000001  00000000  00000000  000888e2  2**0
                  CONTENTS, READONLY
 22 .sysid_hash   00000004  00000000  00000000  000888e3  2**0
                  CONTENTS, READONLY
 23 .sysid_base   00000004  00000000  00000000  000888e7  2**0
                  CONTENTS, READONLY
 24 .sysid_time   00000004  00000000  00000000  000888eb  2**0
                  CONTENTS, READONLY
 25 .stderr_dev   0000000b  00000000  00000000  000888ef  2**0
                  CONTENTS, READONLY
 26 .stdin_dev    0000000b  00000000  00000000  000888fa  2**0
                  CONTENTS, READONLY
 27 .stdout_dev   0000000b  00000000  00000000  00088905  2**0
                  CONTENTS, READONLY
 28 .sopc_system_name 00000008  00000000  00000000  00088910  2**0
                  CONTENTS, READONLY
 29 .quartus_project_dir 00000026  00000000  00000000  00088918  2**0
                  CONTENTS, READONLY
 30 .jdi          00004f23  00000000  00000000  0008893e  2**0
                  CONTENTS, READONLY
 31 .sopcinfo     000b5b3a  00000000  00000000  0008d861  2**0
                  CONTENTS, READONLY
SYMBOL TABLE:
08000000 l    d  .entry	00000000 .entry
08000020 l    d  .exceptions	00000000 .exceptions
08000230 l    d  .text	00000000 .text
080165f8 l    d  .rodata	00000000 .rodata
08016ec8 l    d  .rwdata	00000000 .rwdata
0801a590 l    d  .bss	00000000 .bss
00000000 l    d  .onchip_memory2_0	00000000 .onchip_memory2_0
0801a87c l    d  .sdram	00000000 .sdram
00000000 l    d  .comment	00000000 .comment
00000000 l    d  .debug_aranges	00000000 .debug_aranges
00000000 l    d  .debug_info	00000000 .debug_info
00000000 l    d  .debug_abbrev	00000000 .debug_abbrev
00000000 l    d  .debug_line	00000000 .debug_line
00000000 l    d  .debug_frame	00000000 .debug_frame
00000000 l    d  .debug_str	00000000 .debug_str
00000000 l    d  .debug_loc	00000000 .debug_loc
00000000 l    d  .debug_alt_sim_info	00000000 .debug_alt_sim_info
00000000 l    d  .debug_ranges	00000000 .debug_ranges
00000000 l    df *ABS*	00000000 ../final_project_bsp//obj/HAL/src/crt0.o
08000268 l       .text	00000000 alt_after_alt_main
00000000 l    df *ABS*	00000000 alt_irq_handler.c
00000000 l    df *ABS*	00000000 alt_instruction_exception_entry.c
00000000 l    df *ABS*	00000000 main.c
080189a4 l     O .rwdata	00000001 addr
080189a5 l     O .rwdata	00000006 p1_bytes
080189ab l     O .rwdata	00000006 p2_bytes
0801a590 l     O .bss	00000004 cooldown.4221
080189d8 l     O .rwdata	00000004 tol.4222
080167d8 l     O .rodata	00000120 vy_lookup.4220
080168f8 l     O .rodata	00000120 vx_lookup.4219
00000000 l    df *ABS*	00000000 HID.c
00000000 l    df *ABS*	00000000 MAX3421E.c
00000000 l    df *ABS*	00000000 transfer.c
0801a5a4 l     O .bss	00000004 usb_delay.2608
0801a5a8 l     O .bss	00000001 tmp_addr.2609
00000000 l    df *ABS*	00000000 w_pow.c
00000000 l    df *ABS*	00000000 w_sqrt.c
00000000 l    df *ABS*	00000000 e_pow.c
00000000 l    df *ABS*	00000000 e_sqrt.c
00000000 l    df *ABS*	00000000 s_fabs.c
00000000 l    df *ABS*	00000000 s_finite.c
00000000 l    df *ABS*	00000000 s_fpclassify.c
00000000 l    df *ABS*	00000000 s_lib_ver.c
00000000 l    df *ABS*	00000000 s_matherr.c
00000000 l    df *ABS*	00000000 s_nan.c
00000000 l    df *ABS*	00000000 s_rint.c
08016bb8 l     O .rodata	00000010 TWO52
00000000 l    df *ABS*	00000000 s_scalbn.c
00000000 l    df *ABS*	00000000 s_copysign.c
00000000 l    df *ABS*	00000000 lib2-divmod.c
00000000 l    df *ABS*	00000000 lib2-mul.c
00000000 l    df *ABS*	00000000 addsf3.c
00000000 l    df *ABS*	00000000 divsf3.c
00000000 l    df *ABS*	00000000 gesf2.c
00000000 l    df *ABS*	00000000 lesf2.c
00000000 l    df *ABS*	00000000 mulsf3.c
00000000 l    df *ABS*	00000000 subsf3.c
00000000 l    df *ABS*	00000000 floatsisf.c
00000000 l    df *ABS*	00000000 adddf3.c
00000000 l    df *ABS*	00000000 divdf3.c
00000000 l    df *ABS*	00000000 eqdf2.c
00000000 l    df *ABS*	00000000 gedf2.c
00000000 l    df *ABS*	00000000 ledf2.c
00000000 l    df *ABS*	00000000 muldf3.c
00000000 l    df *ABS*	00000000 subdf3.c
00000000 l    df *ABS*	00000000 floatsidf.c
00000000 l    df *ABS*	00000000 extendsfdf2.c
00000000 l    df *ABS*	00000000 truncdfsf2.c
00000000 l    df *ABS*	00000000 libgcc2.c
00000000 l    df *ABS*	00000000 libgcc2.c
00000000 l    df *ABS*	00000000 errno.c
00000000 l    df *ABS*	00000000 impure.c
08016ef8 l     O .rwdata	00000424 impure_data
00000000 l    df *ABS*	00000000 printf.c
00000000 l    df *ABS*	00000000 putchar.c
00000000 l    df *ABS*	00000000 puts.c
00000000 l    df *ABS*	00000000 strlen.c
00000000 l    df *ABS*	00000000 strpbrk.c
00000000 l    df *ABS*	00000000 vfprintf.c
08016d12 l     O .rodata	00000010 zeroes.4404
0800b8c4 l     F .text	000000bc __sbprintf
08016d22 l     O .rodata	00000010 blanks.4403
00000000 l    df *ABS*	00000000 wsetup.c
00000000 l    df *ABS*	00000000 dtoa.c
0800bad4 l     F .text	00000228 quorem
00000000 l    df *ABS*	00000000 fflush.c
00000000 l    df *ABS*	00000000 findfp.c
0800d62c l     F .text	00000008 __fp_unlock
0800d640 l     F .text	0000019c __sinit.part.1
0800d7dc l     F .text	00000008 __fp_lock
00000000 l    df *ABS*	00000000 mallocr.c
00000000 l    df *ABS*	00000000 fvwrite.c
00000000 l    df *ABS*	00000000 fwalk.c
00000000 l    df *ABS*	00000000 locale.c
0801733c l     O .rwdata	00000020 lc_ctype_charset
0801731c l     O .rwdata	00000020 lc_message_charset
0801735c l     O .rwdata	00000038 lconv
00000000 l    df *ABS*	00000000 makebuf.c
00000000 l    df *ABS*	00000000 mallocr.c
00000000 l    df *ABS*	00000000 memchr.c
00000000 l    df *ABS*	00000000 memcpy.c
00000000 l    df *ABS*	00000000 memmove.c
00000000 l    df *ABS*	00000000 memset.c
00000000 l    df *ABS*	00000000 mprec.c
08016d50 l     O .rodata	0000000c p05.2768
00000000 l    df *ABS*	00000000 putc.c
00000000 l    df *ABS*	00000000 mallocr.c
00000000 l    df *ABS*	00000000 sbrkr.c
00000000 l    df *ABS*	00000000 stdio.c
00000000 l    df *ABS*	00000000 strcmp.c
00000000 l    df *ABS*	00000000 vfprintf.c
08010da4 l     F .text	000000fc __sprint_r.part.0
08016e74 l     O .rodata	00000010 zeroes.4349
080123e0 l     F .text	000000bc __sbprintf
08016e84 l     O .rodata	00000010 blanks.4348
00000000 l    df *ABS*	00000000 wbuf.c
00000000 l    df *ABS*	00000000 writer.c
00000000 l    df *ABS*	00000000 closer.c
00000000 l    df *ABS*	00000000 mallocr.c
00000000 l    df *ABS*	00000000 fclose.c
00000000 l    df *ABS*	00000000 fputwc.c
00000000 l    df *ABS*	00000000 fstatr.c
00000000 l    df *ABS*	00000000 int_errno.c
00000000 l    df *ABS*	00000000 isattyr.c
00000000 l    df *ABS*	00000000 lseekr.c
00000000 l    df *ABS*	00000000 readr.c
00000000 l    df *ABS*	00000000 wcrtomb.c
00000000 l    df *ABS*	00000000 wctomb_r.c
00000000 l    df *ABS*	00000000 libgcc2.c
00000000 l    df *ABS*	00000000 libgcc2.c
00000000 l    df *ABS*	00000000 fixdfsi.c
00000000 l    df *ABS*	00000000 floatunsidf.c
00000000 l    df *ABS*	00000000 alt_close.c
08013ad0 l     F .text	0000003c alt_get_errno
00000000 l    df *ABS*	00000000 alt_dev.c
08013be4 l     F .text	0000002c alt_dev_null_write
00000000 l    df *ABS*	00000000 alt_errno.c
00000000 l    df *ABS*	00000000 alt_fstat.c
08013c10 l     F .text	0000003c alt_get_errno
00000000 l    df *ABS*	00000000 alt_isatty.c
08013d04 l     F .text	0000003c alt_get_errno
00000000 l    df *ABS*	00000000 alt_load.c
08013dec l     F .text	00000068 alt_load_section
00000000 l    df *ABS*	00000000 alt_lseek.c
08013ed8 l     F .text	0000003c alt_get_errno
00000000 l    df *ABS*	00000000 alt_main.c
00000000 l    df *ABS*	00000000 alt_malloc_lock.c
00000000 l    df *ABS*	00000000 alt_read.c
080140b4 l     F .text	0000003c alt_get_errno
00000000 l    df *ABS*	00000000 alt_release_fd.c
00000000 l    df *ABS*	00000000 alt_sbrk.c
08018a1c l     O .rwdata	00000004 heap_end
00000000 l    df *ABS*	00000000 alt_tick.c
00000000 l    df *ABS*	00000000 alt_usleep.c
00000000 l    df *ABS*	00000000 alt_write.c
080144fc l     F .text	0000003c alt_get_errno
00000000 l    df *ABS*	00000000 alt_sys_init.c
08014638 l     F .text	00000034 alt_dev_reg
08017944 l     O .rwdata	00001060 jtag_uart_0
00000000 l    df *ABS*	00000000 altera_avalon_jtag_uart_fd.c
00000000 l    df *ABS*	00000000 altera_avalon_jtag_uart_init.c
0801492c l     F .text	0000020c altera_avalon_jtag_uart_irq
08014b38 l     F .text	000000a0 altera_avalon_jtag_uart_timeout
00000000 l    df *ABS*	00000000 altera_avalon_jtag_uart_ioctl.c
00000000 l    df *ABS*	00000000 altera_avalon_jtag_uart_read.c
00000000 l    df *ABS*	00000000 altera_avalon_jtag_uart_write.c
00000000 l    df *ABS*	00000000 altera_avalon_spi.c
00000000 l    df *ABS*	00000000 altera_avalon_timer_sc.c
0801536c l     F .text	00000078 alt_avalon_timer_sc_irq
00000000 l    df *ABS*	00000000 alt_alarm_start.c
00000000 l    df *ABS*	00000000 alt_busy_sleep.c
00000000 l    df *ABS*	00000000 alt_dcache_flush_all.c
00000000 l    df *ABS*	00000000 alt_dev_llist_insert.c
08015704 l     F .text	0000003c alt_get_errno
00000000 l    df *ABS*	00000000 alt_do_ctors.c
00000000 l    df *ABS*	00000000 alt_do_dtors.c
00000000 l    df *ABS*	00000000 alt_icache_flush_all.c
00000000 l    df *ABS*	00000000 alt_iic.c
00000000 l    df *ABS*	00000000 alt_iic_isr_register.c
00000000 l    df *ABS*	00000000 alt_io_redirect.c
08015b64 l     F .text	000000e4 alt_open_fd
00000000 l    df *ABS*	00000000 alt_irq_vars.c
00000000 l    df *ABS*	00000000 alt_open.c
08015cc4 l     F .text	0000003c alt_get_errno
08015d00 l     F .text	000000ec alt_file_locked
00000000 l    df *ABS*	00000000 altera_nios2_gen2_irq.c
00000000 l    df *ABS*	00000000 alt_find_dev.c
00000000 l    df *ABS*	00000000 alt_find_file.c
00000000 l    df *ABS*	00000000 alt_get_fd.c
00000000 l    df *ABS*	00000000 atexit.c
00000000 l    df *ABS*	00000000 exit.c
00000000 l    df *ABS*	00000000 memcmp.c
00000000 l    df *ABS*	00000000 __atexit.c
00000000 l    df *ABS*	00000000 __call_atexit.c
00000000 l    df *ABS*	00000000 alt_exit.c
0801a5e0 g     O .bss	00000004 alt_instruction_exception_handler
080093e0 g     F .text	00000018 putchar
080102f4 g     F .text	00000074 _mprec_log10
080103e0 g     F .text	0000008c __any_on
08012aec g     F .text	00000054 _isatty_r
08016d5c g     O .rodata	00000028 __mprec_tinytens
08013ff0 g     F .text	0000007c alt_main
080189dc g     O .rwdata	00000008 ctrl_xfers
080093f8 g     F .text	000000c0 _puts_r
0801a77c g     O .bss	00000100 alt_irq
08004e2c g     F .text	00000014 fabs
08012b40 g     F .text	00000060 _lseek_r
08002cc0 g     F .text	00000644 USB_Task
080039d0 g     F .text	00000130 sqrt
08018a2c g       *ABS*	00000000 __flash_rwdata_start
08007ba4 g     F .text	00000088 .hidden __eqdf2
080189d4 g     O .rwdata	00000004 aimbot_on
0801a87c g       *ABS*	00000000 __alt_heap_start
0800939c g     F .text	0000003c printf
08012c00 g     F .text	0000009c _wcrtomb_r
08001e48 g     F .text	000000a8 kbdPoll
08010c64 g     F .text	0000005c __sseek
0800d98c g     F .text	00000010 __sinit
0801249c g     F .text	00000140 __swbuf_r
0800e460 g     F .text	0000007c _setlocale_r
0800d7e4 g     F .text	00000078 __sfmoreglue
08014090 g     F .text	00000024 __malloc_unlock
08000c20 g     F .text	000001f0 GetDriverandReport
0800592c g     F .text	00000440 .hidden __divsf3
0800f130 g     F .text	0000015c memmove
0800d974 g     F .text	00000018 _cleanup
0800f3b4 g     F .text	000000a8 _Balloc
08001fbc g     F .text	0000008c MAXreg_wr
08016ec8 g     O .rwdata	00000030 ClientDriverTable
08007c2c g     F .text	000000dc .hidden __gtdf2
08015f48 g     F .text	00000024 altera_nios2_gen2_irq_init
0800935c g     F .text	00000010 __errno
08003304 g     F .text	0000002c MSDProbe
08000000 g     F .entry	0000000c __reset
080027c0 g     F .text	000000e8 XferCtrlData
08000020 g       *ABS*	00000000 __flash_exceptions_start
0801a5e4 g     O .bss	00000010 hid_ep
08012a90 g     F .text	0000005c _fstat_r
0801a5c4 g     O .bss	00000004 errno
08010be0 g     F .text	00000008 __seofread
0801a5cc g     O .bss	00000004 alt_argv
080209a4 g       *ABS*	00000000 _gp
080144cc g     F .text	00000030 usleep
08002100 g     F .text	00000084 MAXreg_rd
08006320 g     F .text	000004e4 .hidden __subsf3
080177c4 g     O .rwdata	00000180 alt_fd_list
08001d80 g     F .text	00000040 HID_init
080093d8 g     F .text	00000008 _putchar_r
08015f6c g     F .text	00000090 alt_find_dev
0800efe8 g     F .text	00000148 memcpy
0800d634 g     F .text	0000000c _cleanup_r
08008f64 g     F .text	000000dc .hidden __floatsidf
08015c48 g     F .text	0000007c alt_io_redirect
08007d08 g     F .text	000000f4 .hidden __ltdf2
080165f8 g       *ABS*	00000000 __DTOR_END__
080094b8 g     F .text	00000014 puts
080161c8 g     F .text	0000009c alt_exception_cause_generated_bad_addr
08004e5c g     F .text	00000074 __fpclassifyd
08010250 g     F .text	000000a4 __ratio
080123c4 g     F .text	0000001c __vfiprintf_internal
08014d30 g     F .text	0000021c altera_avalon_jtag_uart_read
0800936c g     F .text	00000030 _printf_r
00000000 g       *ABS*	00000000 __alt_mem_onchip_memory2_0
08005380 g     F .text	00000064 .hidden __udivsi3
08013d40 g     F .text	000000ac isatty
08016dac g     O .rodata	000000c8 __mprec_tens
0800e4dc g     F .text	0000000c __locale_charset
08005e28 g     F .text	000000c8 .hidden __lesf2
0801a5c0 g     O .bss	00000004 __malloc_top_pad
080189e4 g     O .rwdata	00000001 usb_task_state
080189f4 g     O .rwdata	00000004 __mb_cur_max
0800e50c g     F .text	0000000c _localeconv_r
0800f7e8 g     F .text	0000003c __i2b
0800de10 g     F .text	000004c8 __sfvwrite_r
08010b38 g     F .text	00000054 _sbrk_r
08012ba0 g     F .text	00000060 _read_r
0800247c g     F .text	00000094 MAX3421E_init
080010ec g     F .text	00000034 setKeycode
08018a14 g     O .rwdata	00000004 alt_max_fd
08012784 g     F .text	000000f0 _fclose_r
0800d5fc g     F .text	00000030 fflush
0801a5bc g     O .bss	00000004 __malloc_max_sbrked_mem
08009040 g     F .text	00000110 .hidden __extendsfdf2
08006928 g     F .text	000008ac .hidden __adddf3
0800fff8 g     F .text	0000010c __b2d
080133e4 g     F .text	000005c4 .hidden __umoddi3
08013f14 g     F .text	000000dc lseek
080189e8 g     O .rwdata	00000004 __fdlib_version
080189ec g     O .rwdata	00000004 _global_impure_ptr
080105d4 g     F .text	00000564 _realloc_r
0801a87c g       *ABS*	00000000 __bss_end
08015a74 g     F .text	000000f0 alt_iic_isr_register
080143c4 g     F .text	00000108 alt_tick
08012de8 g     F .text	000005fc .hidden __udivdi3
080129ec g     F .text	00000024 _fputwc_r
08016d84 g     O .rodata	00000028 __mprec_bigtens
0800f5cc g     F .text	00000104 __s2b
08013a28 g     F .text	000000a8 .hidden __floatunsidf
0800fd38 g     F .text	00000060 __mcmp
0800d9ac g     F .text	00000018 __fp_lock_all
08015a28 g     F .text	0000004c alt_ic_irq_enabled
08014328 g     F .text	0000009c alt_alarm_stop
0801a5dc g     O .bss	00000004 alt_irq_active
080033cc g     F .text	0000002c DummyProbe
080000fc g     F .exceptions	000000d4 alt_irq_handler
0801779c g     O .rwdata	00000028 alt_dev_null
08001dc0 g     F .text	00000088 mousePoll
08004ee4 g     F .text	000001ec rint
080189d0 g     O .rwdata	00000004 p2_ang
080022d0 g     F .text	00000024 Vbus_power
080156e4 g     F .text	00000020 alt_dcache_flush_all
0800f6d0 g     F .text	00000068 __hi0bits
080139a8 g     F .text	00000080 .hidden __fixdfsi
08018a2c g       *ABS*	00000000 __ram_rwdata_end
08018a0c g     O .rwdata	00000008 alt_dev_list
08014538 g     F .text	00000100 write
0801046c g     F .text	000000a0 _putc_r
08005d6c g     F .text	000000bc .hidden __gtsf2
08016ec8 g       *ABS*	00000000 __ram_rodata_end
0801a5a9 g     O .bss	00000001 usb_error
08013c4c g     F .text	000000b8 fstat
08007d08 g     F .text	000000f4 .hidden __ledf2
0800fab0 g     F .text	00000140 __pow5mult
08010eb8 g     F .text	0000150c ___vfiprintf_internal_r
0801a5b4 g     O .bss	00000004 __nlocale_changed
080053e4 g     F .text	00000058 .hidden __umodsi3
0801a87c g       *ABS*	00000000 end
0801486c g     F .text	000000c0 altera_avalon_jtag_uart_init
080001d0 g     F .exceptions	00000060 alt_instruction_exception_entry
0800291c g     F .text	0000017c XferDispatchPkt
080165f8 g       *ABS*	00000000 __CTOR_LIST__
0c000000 g       *ABS*	00000000 __alt_stack_pointer
080153e4 g     F .text	0000007c alt_avalon_timer_sc_init
080092f8 g     F .text	00000064 .hidden __clzsi2
08014f4c g     F .text	00000224 altera_avalon_jtag_uart_write
0800d99c g     F .text	00000004 __sfp_lock_acquire
0800ef04 g     F .text	000000e4 memchr
080095cc g     F .text	000022dc ___vfprintf_internal_r
08002640 g     F .text	00000034 MaxGpxHandler
0800db00 g     F .text	00000310 _free_r
0800e4e8 g     F .text	00000010 __locale_mb_cur_max
08016444 g     F .text	00000180 __call_exitprocs
0801a5b0 g     O .bss	00000004 __mlocale_changed
080189f8 g     O .rwdata	00000004 __malloc_sbrk_base
08000230 g     F .text	0000003c _start
0801a5d4 g     O .bss	00000004 _alt_tick_rate
08002184 g     F .text	000000ac MAXbytes_rd
0800fbf0 g     F .text	00000148 __lshift
08015170 g     F .text	000001fc alt_avalon_spi_command
0801a5d8 g     O .bss	00000004 _alt_nticks
080140f0 g     F .text	00000104 read
080146a4 g     F .text	00000064 alt_sys_init
08006804 g     F .text	00000124 .hidden __floatsisf
0801a734 g     O .bss	00000048 devtable
0801632c g     F .text	00000118 __register_exitproc
08001978 g     F .text	00000408 HIDKProbe
0801a5f4 g     O .bss	00000018 msd_ep
0800f824 g     F .text	0000028c __multiply
08003b00 g     F .text	000010a4 __ieee754_pow
08014bd8 g     F .text	00000068 altera_avalon_jtag_uart_close
08002c28 g     F .text	00000098 USB_init
0800350c g     F .text	000004c4 pow
0801a634 g     O .bss	00000100 bigbuf
0800543c g     F .text	00000028 .hidden __mulsi3
08016ec8 g       *ABS*	00000000 __ram_rwdata_start
080165f8 g       *ABS*	00000000 __ram_rodata_start
0801a60c g     O .bss	00000028 __malloc_current_mallinfo
0801a5a0 g     O .bss	00000001 last_usb_task_state
08010104 g     F .text	0000014c __d2b
0801a598 g     O .bss	00000008 dev0ep
08000e54 g     F .text	00000048 clearLED
08014708 g     F .text	00000060 altera_avalon_jtag_uart_read_fd
08016104 g     F .text	000000c4 alt_get_fd
0801558c g     F .text	00000158 alt_busy_sleep
08003330 g     F .text	00000038 MSDEventHandler
08012654 g     F .text	00000054 _close_r
080162b0 g     F .text	0000007c memcmp
080147c8 g     F .text	00000050 altera_avalon_jtag_uart_close_fd
0801a87c g       *ABS*	00000000 __alt_stack_base
08014818 g     F .text	00000054 altera_avalon_jtag_uart_ioctl_fd
0800b980 g     F .text	00000154 __swsetup_r
080071d4 g     F .text	000009d0 .hidden __divdf3
0800d85c g     F .text	00000118 __sfp
08010368 g     F .text	00000078 __copybits
08017394 g     O .rwdata	00000408 __malloc_av_
0800d9a8 g     F .text	00000004 __sinit_lock_release
08003394 g     F .text	00000038 CDCEventHandler
08007dfc g     F .text	0000086c .hidden __muldf3
080033f8 g     F .text	00000038 DummyEventHandler
08010b8c g     F .text	00000054 __sread
08015ffc g     F .text	00000108 alt_find_file
08015740 g     F .text	000000a4 alt_dev_llist_insert
0801406c g     F .text	00000024 __malloc_lock
08014278 g     F .text	000000b0 sbrk
0800d5a0 g     F .text	0000005c _fflush_r
080126a8 g     F .text	000000dc _calloc_r
080189b8 g     O .rwdata	00000004 p1_vel
0801a590 g       *ABS*	00000000 __bss_start
080022f4 g     F .text	00000188 MAX_busprobe
0801a594 g     O .bss	00000002 hid_device
0800f28c g     F .text	00000128 memset
08001120 g     F .text	00000450 main
08002510 g     F .text	00000064 MAX3421E_Task
0801a5d0 g     O .bss	00000004 alt_envp
0801a5b8 g     O .bss	00000004 __malloc_max_total_mem
08014768 g     F .text	00000060 altera_avalon_jtag_uart_write_fd
080125dc g     F .text	00000018 __swbuf
08003488 g     F .text	00000084 ConvUTF8ToStr
08005e28 g     F .text	000000c8 .hidden __ltsf2
08010cc0 g     F .text	00000008 __sclose
08004ed0 g     F .text	00000008 matherr
0c000000 g       *ABS*	00000000 __alt_heap_limit
08012874 g     F .text	00000014 fclose
08009150 g     F .text	000001a8 .hidden __truncdfsf2
0800bcfc g     F .text	00001688 _dtoa_r
0800e6f8 g     F .text	0000080c _malloc_r
08012d5c g     F .text	00000030 __ascii_wctomb
08018a18 g     O .rwdata	00000004 alt_errno
0800e2d8 g     F .text	000000c4 _fwalk
0801050c g     F .text	000000c8 putc
08005288 g     F .text	00000084 .hidden __divsi3
080189c0 g     O .rwdata	00000004 p2_vel
08002a98 g     F .text	00000190 XferInTransfer
08000fb4 g     F .text	00000138 printSignedHex1
0800d9dc g     F .text	00000124 _malloc_trim_r
080165f8 g       *ABS*	00000000 __CTOR_END__
08005ef0 g     F .text	00000430 .hidden __mulsf3
08004e40 g     F .text	0000001c finite
08003450 g     F .text	00000038 GetDevtable
08010cc8 g     F .text	000000dc strcmp
080165f8 g       *ABS*	00000000 __flash_rodata_start
080165f8 g       *ABS*	00000000 __DTOR_LIST__
080189bc g     O .rwdata	00000004 p2_pos
080028a8 g     F .text	00000074 XferCtrlND
0800526c g     F .text	0000001c copysign
08007ba4 g     F .text	00000088 .hidden __nedf2
08002230 g     F .text	000000a0 MAX3421E_reset
080189c8 g     O .rwdata	00000004 b1_vel
0801466c g     F .text	00000038 alt_irq_init
080189b4 g     O .rwdata	00000004 p1_pos
080141f4 g     F .text	00000084 alt_release_fd
08016bc8 g     O .rodata	00000100 .hidden __clz_tab
0801a5ac g     O .bss	00000004 _PathLocale
08016264 g     F .text	00000014 atexit
08005d6c g     F .text	000000bc .hidden __gesf2
080125f4 g     F .text	00000060 _write_r
0800e518 g     F .text	00000018 setlocale
080189f0 g     O .rwdata	00000004 _impure_ptr
0801a5c8 g     O .bss	00000004 alt_argc
080189c4 g     O .rwdata	00000004 b1_pos
0800d384 g     F .text	0000021c __sflush_r
080050d0 g     F .text	0000019c scalbn
08015844 g     F .text	00000060 _do_dtors
0800e504 g     F .text	00000008 __locale_cjk_lang
08002048 g     F .text	000000b8 MAXbytes_wr
08000020 g       .exceptions	00000000 alt_irq_entry
080189cc g     O .rwdata	00000004 p2_pow
0800ff94 g     F .text	00000064 __ulp
0800d9c4 g     F .text	00000018 __fp_unlock_all
08018a04 g     O .rwdata	00000008 alt_fs_list
08003368 g     F .text	0000002c CDCProbe
08004ed8 g     F .text	0000000c nan
08000020 g       *ABS*	00000000 __ram_exceptions_start
0800e530 g     F .text	0000000c localeconv
08000e10 g     F .text	00000044 setLED
08004ba4 g     F .text	00000288 __ieee754_sqrt
08003430 g     F .text	00000020 GetUsbTaskState
080158c4 g     F .text	00000050 alt_ic_isr_register
08016634 g     O .rodata	00000010 devclasses
08018a2c g       *ABS*	00000000 _edata
08001f28 g     F .text	00000038 HIDKEventHandler
0801a87c g       *ABS*	00000000 _end
08002574 g     F .text	000000cc MaxIntHandler
08012888 g     F .text	00000164 __fputwc
08000230 g       *ABS*	00000000 __ram_exceptions_end
08014c40 g     F .text	000000f0 altera_avalon_jtag_uart_ioctl
08001f60 g     F .text	00000034 SPI_init
0801599c g     F .text	0000008c alt_ic_irq_disable
08010be8 g     F .text	0000007c __swrite
080189fc g     O .rwdata	00000004 __malloc_trim_threshold
0800e4f8 g     F .text	0000000c __locale_msgcharset
08016278 g     F .text	00000038 exit
0800e39c g     F .text	000000c4 _fwalk_reent
0800fd98 g     F .text	000001fc __mdiff
0800530c g     F .text	00000074 .hidden __modsi3
0c000000 g       *ABS*	00000000 __alt_data_end
08000020 g     F .exceptions	00000000 alt_exception
0800d9a0 g     F .text	00000004 __sfp_lock_release
08000000 g       *ABS*	00000000 __alt_mem_sdram
08001ef0 g     F .text	00000038 HIDMEventHandler
080165c4 g     F .text	00000034 _exit
08015460 g     F .text	0000012c alt_alarm_start
08000e9c g     F .text	00000118 printSignedHex0
0800e53c g     F .text	000001bc __smakebuf_r
080094cc g     F .text	00000098 strlen
08015dec g     F .text	0000015c open
08007c2c g     F .text	000000dc .hidden __gedf2
08018a00 g     O .rwdata	00000004 __wctomb
08010ea0 g     F .text	00000018 __sprint_r
080158a4 g     F .text	00000020 alt_icache_flush_all
08018a28 g     O .rwdata	00000004 alt_priority_mask
08015914 g     F .text	00000088 alt_ic_irq_enable
0800026c g     F .text	000009b4 ai_player
0800b8a8 g     F .text	0000001c __vfprintf_internal
08001570 g     F .text	00000408 HIDMProbe
08012d8c g     F .text	0000005c _wctomb_r
08001f94 g     F .text	00000028 SPI_wr
08008668 g     F .text	000008fc .hidden __subdf3
0800f738 g     F .text	000000b0 __lo0bits
08018a20 g     O .rwdata	00000008 alt_alarm_list
080157e4 g     F .text	00000060 _do_ctors
08012c9c g     F .text	000000c0 wcrtomb
08013b0c g     F .text	000000d8 close
08005464 g     F .text	000004c8 .hidden __addsf3
08013e54 g     F .text	00000084 alt_load
08009564 g     F .text	00000068 strpbrk
08012a10 g     F .text	00000080 fputwc
0800d9a4 g     F .text	00000004 __sinit_lock_acquire
08002674 g     F .text	0000014c XferCtrlReq
0800f484 g     F .text	00000148 __multadd
0800f45c g     F .text	00000028 _Bfree



Disassembly of section .entry:

08000000 <__reset>:
 * Jump to the _start entry point in the .text section if reset code
 * is allowed or if optimizing for RTL simulation.
 */
#if defined(ALT_ALLOW_CODE_AT_RESET) || defined(ALT_SIM_OPTIMIZE)
    /* Jump to the _start entry point in the .text section. */
    movhi r1, %hi(_start)
 8000000:	00420034 	movhi	at,2048
    ori r1, r1, %lo(_start)
 8000004:	08408c14 	ori	at,at,560
    jmp r1
 8000008:	0800683a 	jmp	at
	...

Disassembly of section .exceptions:

08000020 <alt_exception>:

#else /* ALT_EXCEPTION_STACK disabled */
        /* 
         * Reserve space on normal stack for registers about to be pushed.
         */
        addi  sp, sp, -76
 8000020:	deffed04 	addi	sp,sp,-76
         * documentation for details).
         *
         * Leave a gap in the stack frame at 4(sp) for the muldiv handler to
         * store zero into.
         */
        stw   ra,  0(sp)
 8000024:	dfc00015 	stw	ra,0(sp)
        stw   r1,   8(sp)
 8000028:	d8400215 	stw	at,8(sp)
        stw   r2,  12(sp)
 800002c:	d8800315 	stw	r2,12(sp)
        stw   r3,  16(sp)
 8000030:	d8c00415 	stw	r3,16(sp)
        stw   r4,  20(sp)
 8000034:	d9000515 	stw	r4,20(sp)
        stw   r5,  24(sp)
 8000038:	d9400615 	stw	r5,24(sp)
        stw   r6,  28(sp)
 800003c:	d9800715 	stw	r6,28(sp)
        stw   r7,  32(sp)
 8000040:	d9c00815 	stw	r7,32(sp)
        rdctl r5, estatus   /* Read early to avoid usage stall */
 8000044:	000b307a 	rdctl	r5,estatus
        stw   r8,  36(sp)
 8000048:	da000915 	stw	r8,36(sp)
        stw   r9,  40(sp)
 800004c:	da400a15 	stw	r9,40(sp)
        stw   r10, 44(sp)
 8000050:	da800b15 	stw	r10,44(sp)
        stw   r11, 48(sp)
 8000054:	dac00c15 	stw	r11,48(sp)
        stw   r12, 52(sp)
 8000058:	db000d15 	stw	r12,52(sp)
        stw   r13, 56(sp)
 800005c:	db400e15 	stw	r13,56(sp)
        stw   r14, 60(sp)
 8000060:	db800f15 	stw	r14,60(sp)
        stw   r15, 64(sp)
 8000064:	dbc01015 	stw	r15,64(sp)
        /*
         * ea-4 contains the address of the instruction being executed
         * when the exception occured. For interrupt exceptions, we will
         * will be re-issue the isntruction. Store it in 72(sp)
         */
        stw   r5,  68(sp)  /* estatus */
 8000068:	d9401115 	stw	r5,68(sp)
        addi  r15, ea, -4  /* instruction that caused exception */
 800006c:	ebffff04 	addi	r15,ea,-4
        stw   r15,  72(sp)
 8000070:	dbc01215 	stw	r15,72(sp)
#else
        /*
         * Test to see if the exception was a software exception or caused 
         * by an external interrupt, and vector accordingly.
         */
        rdctl r4, ipending
 8000074:	0009313a 	rdctl	r4,ipending
        andi  r2, r5, 1
 8000078:	2880004c 	andi	r2,r5,1
        beq   r2, zero, .Lnot_irq
 800007c:	10000326 	beq	r2,zero,800008c <alt_exception+0x6c>
        beq   r4, zero, .Lnot_irq
 8000080:	20000226 	beq	r4,zero,800008c <alt_exception+0x6c>
        /*
         * Now that all necessary registers have been preserved, call 
         * alt_irq_handler() to process the interrupts.
         */

        call alt_irq_handler
 8000084:	80000fc0 	call	80000fc <alt_irq_handler>

        .section .exceptions.irqreturn, "xa"

        br    .Lexception_exit
 8000088:	00000706 	br	80000a8 <alt_exception+0x88>
         * upon completion, so we write ea (address of instruction *after*
         * the one where the exception occured) into 72(sp). The actual
         * instruction that caused the exception is written in r2, which these
         * handlers will utilize.
         */
        stw ea, 72(sp) /* EA is PC+4 so will skip over instruction causing exception */
 800008c:	df401215 	stw	ea,72(sp)
.Lunknown_16bit:
        addi.n r4, r4, 2 /* Need PC+2 to skip over instruction causing exception */
        stw r4, 72(sp)

#else /* CDX is not Enabled and all instructions are 32bits */
        ldw r2, -4(ea) /* Instruction value that caused exception */
 8000090:	e8bfff17 	ldw	r2,-4(ea)
         * debugger is present) or go into an infinite loop since the
         * handling behavior is undefined; in that case we will not return here.
         */

        /* Load exception-causing address as first argument (r4) */
        addi   r4, ea, -4
 8000094:	e93fff04 	addi	r4,ea,-4

        /* Call the instruction-exception entry */
        call   alt_instruction_exception_entry
 8000098:	80001d00 	call	80001d0 <alt_instruction_exception_entry>
         * instruction
         *
         * Return code was 0: Skip. The instruction after the exception is
         * already stored in 72(sp).
         */
        bne   r2, r0, .Lexception_exit
 800009c:	1000021e 	bne	r2,zero,80000a8 <alt_exception+0x88>

        /*
         * Otherwise, modify 72(sp) to re-issue the instruction that caused the
         * exception.
         */
        addi  r15, ea, -4  /* instruction that caused exception */
 80000a0:	ebffff04 	addi	r15,ea,-4
        stw   r15,  72(sp)
 80000a4:	dbc01215 	stw	r15,72(sp)
        /* 
         * Restore the saved registers, so that all general purpose registers 
         * have been restored to their state at the time the interrupt occured.
         */

        ldw   r5,  68(sp)
 80000a8:	d9401117 	ldw	r5,68(sp)
        ldw   ea,  72(sp)  /* This becomes the PC once eret is executed */
 80000ac:	df401217 	ldw	ea,72(sp)
        ldw   ra,   0(sp)
 80000b0:	dfc00017 	ldw	ra,0(sp)

        wrctl estatus, r5
 80000b4:	2801707a 	wrctl	estatus,r5

        ldw   r1,   8(sp)
 80000b8:	d8400217 	ldw	at,8(sp)
        ldw   r2,  12(sp)
 80000bc:	d8800317 	ldw	r2,12(sp)
        ldw   r3,  16(sp)
 80000c0:	d8c00417 	ldw	r3,16(sp)
        ldw   r4,  20(sp)
 80000c4:	d9000517 	ldw	r4,20(sp)
        ldw   r5,  24(sp)
 80000c8:	d9400617 	ldw	r5,24(sp)
        ldw   r6,  28(sp)
 80000cc:	d9800717 	ldw	r6,28(sp)
        ldw   r7,  32(sp)
 80000d0:	d9c00817 	ldw	r7,32(sp)

#if defined(ALT_EXCEPTION_STACK) && defined(ALT_STACK_CHECK)
        ldw   et, %gprel(alt_exception_old_stack_limit)(gp)
#endif

        ldw   r8,  36(sp)
 80000d4:	da000917 	ldw	r8,36(sp)
        ldw   r9,  40(sp)
 80000d8:	da400a17 	ldw	r9,40(sp)
        ldw   r10, 44(sp)
 80000dc:	da800b17 	ldw	r10,44(sp)
        ldw   r11, 48(sp)
 80000e0:	dac00c17 	ldw	r11,48(sp)
        ldw   r12, 52(sp)
 80000e4:	db000d17 	ldw	r12,52(sp)
        ldw   r13, 56(sp)
 80000e8:	db400e17 	ldw	r13,56(sp)
        ldw   r14, 60(sp)
 80000ec:	db800f17 	ldw	r14,60(sp)
        ldw   r15, 64(sp)
 80000f0:	dbc01017 	ldw	r15,64(sp)
        stw   et, %gprel(alt_stack_limit_value)(gp)
        stw   zero, %gprel(alt_exception_old_stack_limit)(gp)
#endif /* ALT_STACK_CHECK */
        ldw   sp,  76(sp)
#else /* ALT_EXCEPTION_STACK disabled */
        addi  sp, sp, 76
 80000f4:	dec01304 	addi	sp,sp,76

        /*
         * Return to the interrupted instruction.
         */

        eret
 80000f8:	ef80083a 	eret

080000fc <alt_irq_handler>:
 * instruction is present if the macro ALT_CI_INTERRUPT_VECTOR defined.
 */

void alt_irq_handler (void) __attribute__ ((section (".exceptions")));
void alt_irq_handler (void)
{
 80000fc:	defff904 	addi	sp,sp,-28
 8000100:	dfc00615 	stw	ra,24(sp)
 8000104:	df000515 	stw	fp,20(sp)
 8000108:	df000504 	addi	fp,sp,20
  
  /*
   * Notify the operating system that we are at interrupt level.
   */ 
  
  ALT_OS_INT_ENTER();
 800010c:	0001883a 	nop
#ifndef NIOS2_EIC_PRESENT
static ALT_INLINE alt_u32 ALT_ALWAYS_INLINE alt_irq_pending (void)
{
  alt_u32 active;

  NIOS2_READ_IPENDING (active);
 8000110:	0005313a 	rdctl	r2,ipending
 8000114:	e0bffe15 	stw	r2,-8(fp)

  return active;
 8000118:	e0bffe17 	ldw	r2,-8(fp)
   * Consider the case where the high priority interupt is asserted during
   * the interrupt entry sequence for a lower priority interrupt to see why
   * this is the case.
   */

  active = alt_irq_pending ();
 800011c:	e0bffb15 	stw	r2,-20(fp)

  do
  {
    i = 0;
 8000120:	e03ffd15 	stw	zero,-12(fp)
    mask = 1;
 8000124:	00800044 	movi	r2,1
 8000128:	e0bffc15 	stw	r2,-16(fp)
     * called to clear the interrupt condition.
     */

    do
    {
      if (active & mask)
 800012c:	e0fffb17 	ldw	r3,-20(fp)
 8000130:	e0bffc17 	ldw	r2,-16(fp)
 8000134:	1884703a 	and	r2,r3,r2
 8000138:	10001426 	beq	r2,zero,800018c <alt_irq_handler+0x90>
      { 
#ifdef ALT_ENHANCED_INTERRUPT_API_PRESENT
        alt_irq[i].handler(alt_irq[i].context); 
 800013c:	008200b4 	movhi	r2,2050
 8000140:	10a9df04 	addi	r2,r2,-22660
 8000144:	e0fffd17 	ldw	r3,-12(fp)
 8000148:	180690fa 	slli	r3,r3,3
 800014c:	10c5883a 	add	r2,r2,r3
 8000150:	10c00017 	ldw	r3,0(r2)
 8000154:	008200b4 	movhi	r2,2050
 8000158:	10a9df04 	addi	r2,r2,-22660
 800015c:	e13ffd17 	ldw	r4,-12(fp)
 8000160:	200890fa 	slli	r4,r4,3
 8000164:	1105883a 	add	r2,r2,r4
 8000168:	10800104 	addi	r2,r2,4
 800016c:	10800017 	ldw	r2,0(r2)
 8000170:	1009883a 	mov	r4,r2
 8000174:	183ee83a 	callr	r3
#else
        alt_irq[i].handler(alt_irq[i].context, i); 
#endif
        break;
 8000178:	0001883a 	nop
#ifndef NIOS2_EIC_PRESENT
static ALT_INLINE alt_u32 ALT_ALWAYS_INLINE alt_irq_pending (void)
{
  alt_u32 active;

  NIOS2_READ_IPENDING (active);
 800017c:	0005313a 	rdctl	r2,ipending
 8000180:	e0bfff15 	stw	r2,-4(fp)

  return active;
 8000184:	e0bfff17 	ldw	r2,-4(fp)
 8000188:	00000706 	br	80001a8 <alt_irq_handler+0xac>
      }
      mask <<= 1;
 800018c:	e0bffc17 	ldw	r2,-16(fp)
 8000190:	1085883a 	add	r2,r2,r2
 8000194:	e0bffc15 	stw	r2,-16(fp)
      i++;
 8000198:	e0bffd17 	ldw	r2,-12(fp)
 800019c:	10800044 	addi	r2,r2,1
 80001a0:	e0bffd15 	stw	r2,-12(fp)

    } while (1);
 80001a4:	003fe106 	br	800012c <__alt_data_end+0xfc00012c>

    active = alt_irq_pending ();
 80001a8:	e0bffb15 	stw	r2,-20(fp)
    
  } while (active);
 80001ac:	e0bffb17 	ldw	r2,-20(fp)
 80001b0:	103fdb1e 	bne	r2,zero,8000120 <__alt_data_end+0xfc000120>

  /*
   * Notify the operating system that interrupt processing is complete.
   */ 

  ALT_OS_INT_EXIT();
 80001b4:	0001883a 	nop
}
 80001b8:	0001883a 	nop
 80001bc:	e037883a 	mov	sp,fp
 80001c0:	dfc00117 	ldw	ra,4(sp)
 80001c4:	df000017 	ldw	fp,0(sp)
 80001c8:	dec00204 	addi	sp,sp,8
 80001cc:	f800283a 	ret

080001d0 <alt_instruction_exception_entry>:
 * that handler if it has been registered. Absent a handler, it will
 * break break or hang as discussed below.
 */
int 
alt_instruction_exception_entry (alt_u32 exception_pc)
{
 80001d0:	defffb04 	addi	sp,sp,-20
 80001d4:	dfc00415 	stw	ra,16(sp)
 80001d8:	df000315 	stw	fp,12(sp)
 80001dc:	df000304 	addi	fp,sp,12
 80001e0:	e13fff15 	stw	r4,-4(fp)
  cause = ( (cause & NIOS2_EXCEPTION_REG_CAUSE_MASK) >>
              NIOS2_EXCEPTION_REG_CAUSE_OFST );

  NIOS2_READ_BADADDR(badaddr);
#else
  cause = NIOS2_EXCEPTION_CAUSE_NOT_PRESENT;
 80001e4:	00bfffc4 	movi	r2,-1
 80001e8:	e0bffd15 	stw	r2,-12(fp)
  badaddr = 0;
 80001ec:	e03ffe15 	stw	zero,-8(fp)
#endif /* NIOS2_HAS_EXTRA_EXCEPTION_INFO */

  if(alt_instruction_exception_handler) {
 80001f0:	d0a70f17 	ldw	r2,-25540(gp)
 80001f4:	10000726 	beq	r2,zero,8000214 <alt_instruction_exception_entry+0x44>
     * Call handler. Its return value indicates whether the exception-causing
     * instruction should be re-issued. The code that called us,
     * alt_eceptions_entry.S, will look at this value and adjust the ea
     * register as necessary
     */
    return alt_instruction_exception_handler(cause, exception_pc, badaddr);
 80001f8:	d0a70f17 	ldw	r2,-25540(gp)
 80001fc:	e0fffd17 	ldw	r3,-12(fp)
 8000200:	e1bffe17 	ldw	r6,-8(fp)
 8000204:	e17fff17 	ldw	r5,-4(fp)
 8000208:	1809883a 	mov	r4,r3
 800020c:	103ee83a 	callr	r2
 8000210:	00000206 	br	800021c <alt_instruction_exception_entry+0x4c>
   *    (a peripheral which negates its interrupt output before its
   *    interrupt handler has been executed will cause spurious interrupts)
   */
  else {
#ifdef NIOS2_HAS_DEBUG_STUB
    NIOS2_BREAK();
 8000214:	003da03a 	break	0
      ;
#endif /* NIOS2_HAS_DEBUG_STUB */
  }

  /* We should not get here. Remove compiler warning. */
  return NIOS2_EXCEPTION_RETURN_REISSUE_INST;
 8000218:	0005883a 	mov	r2,zero
}
 800021c:	e037883a 	mov	sp,fp
 8000220:	dfc00117 	ldw	ra,4(sp)
 8000224:	df000017 	ldw	fp,0(sp)
 8000228:	dec00204 	addi	sp,sp,8
 800022c:	f800283a 	ret

Disassembly of section .text:

08000230 <_start>:

    /*
     * Now that the caches are initialized, set up the stack pointer and global pointer.
     * The values provided by the linker are assumed to be correctly aligned.
     */
    movhi sp, %hi(__alt_stack_pointer)
 8000230:	06c30034 	movhi	sp,3072
    ori sp, sp, %lo(__alt_stack_pointer)
 8000234:	dec00014 	ori	sp,sp,0
    movhi gp, %hi(_gp)
 8000238:	068200b4 	movhi	gp,2050
    ori gp, gp, %lo(_gp)
 800023c:	d6826914 	ori	gp,gp,2468
 */
#ifndef ALT_SIM_OPTIMIZE
    /* Log that the BSS is about to be cleared. */
    ALT_LOG_PUTS(alt_log_msg_bss)

    movhi r2, %hi(__bss_start)
 8000240:	00820074 	movhi	r2,2049
    ori r2, r2, %lo(__bss_start)
 8000244:	10a96414 	ori	r2,r2,42384

    movhi r3, %hi(__bss_end)
 8000248:	00c20074 	movhi	r3,2049
    ori r3, r3, %lo(__bss_end)
 800024c:	18ea1f14 	ori	r3,r3,43132

    beq r2, r3, 1f
 8000250:	10c00326 	beq	r2,r3,8000260 <_start+0x30>

0:
    stw zero, (r2)
 8000254:	10000015 	stw	zero,0(r2)
    addi r2, r2, 4
 8000258:	10800104 	addi	r2,r2,4
    bltu r2, r3, 0b
 800025c:	10fffd36 	bltu	r2,r3,8000254 <__alt_data_end+0xfc000254>
     * section aren't defined until alt_load() has been called).
     */
    mov   et, zero
#endif

    call alt_load
 8000260:	8013e540 	call	8013e54 <alt_load>

    /* Log that alt_main is about to be called. */
    ALT_LOG_PUTS(alt_log_msg_alt_main)

    /* Call the C entry point. It should never return. */
    call alt_main
 8000264:	8013ff00 	call	8013ff0 <alt_main>

08000268 <alt_after_alt_main>:

    /* Wait in infinite loop in case alt_main does return. */
alt_after_alt_main:
    br alt_after_alt_main
 8000268:	003fff06 	br	8000268 <__alt_data_end+0xfc000268>

0800026c <ai_player>:
volatile SHORT *p2_ang = (SHORT*) AIM_BASE;

// aimbot toggle
volatile BOOL *aimbot_on = (BOOL*) AIM_TOGGLE_BASE;

BYTE ai_player(BYTE key) {
 800026c:	deffd404 	addi	sp,sp,-176
 8000270:	dfc02b15 	stw	ra,172(sp)
 8000274:	df002a15 	stw	fp,168(sp)
 8000278:	dc802915 	stw	r18,164(sp)
 800027c:	dc402815 	stw	r17,160(sp)
 8000280:	dc002715 	stw	r16,156(sp)
 8000284:	df002a04 	addi	fp,sp,168
 8000288:	2005883a 	mov	r2,r4
 800028c:	e0bffc05 	stb	r2,-16(fp)
			{0, 4, 8, 10, 11, 10, 8, 4, 0} };

	// global parameters
	static int cooldown;
	static const float tol = 15;// accuracy tolerance
	cooldown += 1;
 8000290:	d0a6fb17 	ldw	r2,-25620(gp)
 8000294:	10800044 	addi	r2,r2,1
 8000298:	d0a6fb15 	stw	r2,-25620(gp)
	cooldown = cooldown % 120;
 800029c:	d0a6fb17 	ldw	r2,-25620(gp)
 80002a0:	01401e04 	movi	r5,120
 80002a4:	1009883a 	mov	r4,r2
 80002a8:	800530c0 	call	800530c <__modsi3>
 80002ac:	d0a6fb15 	stw	r2,-25620(gp)

	// get player states
	int p1x = (int) *(p1_pos+1);
 80002b0:	d0a00417 	ldw	r2,-32752(gp)
 80002b4:	10800084 	addi	r2,r2,2
 80002b8:	1080000b 	ldhu	r2,0(r2)
 80002bc:	10bfffcc 	andi	r2,r2,65535
 80002c0:	10a0001c 	xori	r2,r2,32768
 80002c4:	10a00004 	addi	r2,r2,-32768
 80002c8:	e0bfe015 	stw	r2,-128(fp)
	int p1y = (int) *(p1_pos+0);
 80002cc:	d0a00417 	ldw	r2,-32752(gp)
 80002d0:	1080000b 	ldhu	r2,0(r2)
 80002d4:	10bfffcc 	andi	r2,r2,65535
 80002d8:	10a0001c 	xori	r2,r2,32768
 80002dc:	10a00004 	addi	r2,r2,-32768
 80002e0:	e0bfe115 	stw	r2,-124(fp)
	int p1vx = (int) *(p1_vel+1);
 80002e4:	d0a00517 	ldw	r2,-32748(gp)
 80002e8:	10800084 	addi	r2,r2,2
 80002ec:	1080000b 	ldhu	r2,0(r2)
 80002f0:	10bfffcc 	andi	r2,r2,65535
 80002f4:	10a0001c 	xori	r2,r2,32768
 80002f8:	10a00004 	addi	r2,r2,-32768
 80002fc:	e0bfe215 	stw	r2,-120(fp)
	int p1vy = (int) *(p1_vel+0);
 8000300:	d0a00517 	ldw	r2,-32748(gp)
 8000304:	1080000b 	ldhu	r2,0(r2)
 8000308:	10bfffcc 	andi	r2,r2,65535
 800030c:	10a0001c 	xori	r2,r2,32768
 8000310:	10a00004 	addi	r2,r2,-32768
 8000314:	e0bfe315 	stw	r2,-116(fp)
	int p2x = (int) *(p2_pos+1);
 8000318:	d0a00617 	ldw	r2,-32744(gp)
 800031c:	10800084 	addi	r2,r2,2
 8000320:	1080000b 	ldhu	r2,0(r2)
 8000324:	10bfffcc 	andi	r2,r2,65535
 8000328:	10a0001c 	xori	r2,r2,32768
 800032c:	10a00004 	addi	r2,r2,-32768
 8000330:	e0bfe415 	stw	r2,-112(fp)
	int p2y = (int) *(p2_pos+0);
 8000334:	d0a00617 	ldw	r2,-32744(gp)
 8000338:	1080000b 	ldhu	r2,0(r2)
 800033c:	10bfffcc 	andi	r2,r2,65535
 8000340:	10a0001c 	xori	r2,r2,32768
 8000344:	10a00004 	addi	r2,r2,-32768
 8000348:	e0bfe515 	stw	r2,-108(fp)
	int p2vx = (int) *(p2_vel+1);
 800034c:	d0a00717 	ldw	r2,-32740(gp)
 8000350:	10800084 	addi	r2,r2,2
 8000354:	1080000b 	ldhu	r2,0(r2)
 8000358:	10bfffcc 	andi	r2,r2,65535
 800035c:	10a0001c 	xori	r2,r2,32768
 8000360:	10a00004 	addi	r2,r2,-32768
 8000364:	e0bfe615 	stw	r2,-104(fp)
	int p2vy = (int) *(p2_vel+0);
 8000368:	d0a00717 	ldw	r2,-32740(gp)
 800036c:	1080000b 	ldhu	r2,0(r2)
 8000370:	10bfffcc 	andi	r2,r2,65535
 8000374:	10a0001c 	xori	r2,r2,32768
 8000378:	10a00004 	addi	r2,r2,-32768
 800037c:	e0bfe715 	stw	r2,-100(fp)

	// get bomb states
	int bx = (int) *(b1_pos+1);
 8000380:	d0a00817 	ldw	r2,-32736(gp)
 8000384:	10800084 	addi	r2,r2,2
 8000388:	1080000b 	ldhu	r2,0(r2)
 800038c:	10bfffcc 	andi	r2,r2,65535
 8000390:	10a0001c 	xori	r2,r2,32768
 8000394:	10a00004 	addi	r2,r2,-32768
 8000398:	e0bfe815 	stw	r2,-96(fp)
	int by = (int) *(b1_pos+0);
 800039c:	d0a00817 	ldw	r2,-32736(gp)
 80003a0:	1080000b 	ldhu	r2,0(r2)
 80003a4:	10bfffcc 	andi	r2,r2,65535
 80003a8:	10a0001c 	xori	r2,r2,32768
 80003ac:	10a00004 	addi	r2,r2,-32768
 80003b0:	e0bfe915 	stw	r2,-92(fp)
	int bvx = (int) *(b1_vel+1);
 80003b4:	d0a00917 	ldw	r2,-32732(gp)
 80003b8:	10800084 	addi	r2,r2,2
 80003bc:	1080000b 	ldhu	r2,0(r2)
 80003c0:	10bfffcc 	andi	r2,r2,65535
 80003c4:	10a0001c 	xori	r2,r2,32768
 80003c8:	10a00004 	addi	r2,r2,-32768
 80003cc:	e0bfea15 	stw	r2,-88(fp)
	int bvy = (int) *(b1_vel+0);
 80003d0:	d0a00917 	ldw	r2,-32732(gp)
 80003d4:	1080000b 	ldhu	r2,0(r2)
 80003d8:	10bfffcc 	andi	r2,r2,65535
 80003dc:	10a0001c 	xori	r2,r2,32768
 80003e0:	10a00004 	addi	r2,r2,-32768
 80003e4:	e0bfeb15 	stw	r2,-84(fp)

	// dodging bombs
	int a = -bvy;
 80003e8:	e0bfeb17 	ldw	r2,-84(fp)
 80003ec:	0085c83a 	sub	r2,zero,r2
 80003f0:	e0bfec15 	stw	r2,-80(fp)
	int b = bvx;
 80003f4:	e0bfea17 	ldw	r2,-88(fp)
 80003f8:	e0bfed15 	stw	r2,-76(fp)
	float m = (float) -a/b;
 80003fc:	e0bfec17 	ldw	r2,-80(fp)
 8000400:	0085c83a 	sub	r2,zero,r2
 8000404:	1009883a 	mov	r4,r2
 8000408:	80068040 	call	8006804 <__floatsisf>
 800040c:	1021883a 	mov	r16,r2
 8000410:	e13fed17 	ldw	r4,-76(fp)
 8000414:	80068040 	call	8006804 <__floatsisf>
 8000418:	1007883a 	mov	r3,r2
 800041c:	180b883a 	mov	r5,r3
 8000420:	8009883a 	mov	r4,r16
 8000424:	800592c0 	call	800592c <__divsf3>
 8000428:	1007883a 	mov	r3,r2
 800042c:	e0ffee15 	stw	r3,-72(fp)
	float c = b * (m*bx-by);
 8000430:	e13fed17 	ldw	r4,-76(fp)
 8000434:	80068040 	call	8006804 <__floatsisf>
 8000438:	1021883a 	mov	r16,r2
 800043c:	e13fe817 	ldw	r4,-96(fp)
 8000440:	80068040 	call	8006804 <__floatsisf>
 8000444:	1007883a 	mov	r3,r2
 8000448:	e17fee17 	ldw	r5,-72(fp)
 800044c:	1809883a 	mov	r4,r3
 8000450:	8005ef00 	call	8005ef0 <__mulsf3>
 8000454:	1007883a 	mov	r3,r2
 8000458:	1823883a 	mov	r17,r3
 800045c:	e13fe917 	ldw	r4,-92(fp)
 8000460:	80068040 	call	8006804 <__floatsisf>
 8000464:	1007883a 	mov	r3,r2
 8000468:	180b883a 	mov	r5,r3
 800046c:	8809883a 	mov	r4,r17
 8000470:	80063200 	call	8006320 <__subsf3>
 8000474:	1007883a 	mov	r3,r2
 8000478:	1805883a 	mov	r2,r3
 800047c:	100b883a 	mov	r5,r2
 8000480:	8009883a 	mov	r4,r16
 8000484:	8005ef00 	call	8005ef0 <__mulsf3>
 8000488:	1007883a 	mov	r3,r2
 800048c:	e0ffef15 	stw	r3,-68(fp)
	float dsq = pow(a*p2x+b*p2y+c,2) / (a*a+b*b);
 8000490:	e17fe417 	ldw	r5,-112(fp)
 8000494:	e13fec17 	ldw	r4,-80(fp)
 8000498:	800543c0 	call	800543c <__mulsi3>
 800049c:	1021883a 	mov	r16,r2
 80004a0:	e17fe517 	ldw	r5,-108(fp)
 80004a4:	e13fed17 	ldw	r4,-76(fp)
 80004a8:	800543c0 	call	800543c <__mulsi3>
 80004ac:	8085883a 	add	r2,r16,r2
 80004b0:	1009883a 	mov	r4,r2
 80004b4:	80068040 	call	8006804 <__floatsisf>
 80004b8:	1007883a 	mov	r3,r2
 80004bc:	e17fef17 	ldw	r5,-68(fp)
 80004c0:	1809883a 	mov	r4,r3
 80004c4:	80054640 	call	8005464 <__addsf3>
 80004c8:	1007883a 	mov	r3,r2
 80004cc:	1805883a 	mov	r2,r3
 80004d0:	1009883a 	mov	r4,r2
 80004d4:	80090400 	call	8009040 <__extendsfdf2>
 80004d8:	1011883a 	mov	r8,r2
 80004dc:	1813883a 	mov	r9,r3
 80004e0:	000d883a 	mov	r6,zero
 80004e4:	01d00034 	movhi	r7,16384
 80004e8:	4009883a 	mov	r4,r8
 80004ec:	480b883a 	mov	r5,r9
 80004f0:	800350c0 	call	800350c <pow>
 80004f4:	1021883a 	mov	r16,r2
 80004f8:	1823883a 	mov	r17,r3
 80004fc:	e17fec17 	ldw	r5,-80(fp)
 8000500:	e13fec17 	ldw	r4,-80(fp)
 8000504:	800543c0 	call	800543c <__mulsi3>
 8000508:	1025883a 	mov	r18,r2
 800050c:	e17fed17 	ldw	r5,-76(fp)
 8000510:	e13fed17 	ldw	r4,-76(fp)
 8000514:	800543c0 	call	800543c <__mulsi3>
 8000518:	9085883a 	add	r2,r18,r2
 800051c:	1009883a 	mov	r4,r2
 8000520:	8008f640 	call	8008f64 <__floatsidf>
 8000524:	1009883a 	mov	r4,r2
 8000528:	180b883a 	mov	r5,r3
 800052c:	200d883a 	mov	r6,r4
 8000530:	280f883a 	mov	r7,r5
 8000534:	8009883a 	mov	r4,r16
 8000538:	880b883a 	mov	r5,r17
 800053c:	80071d40 	call	80071d4 <__divdf3>
 8000540:	1009883a 	mov	r4,r2
 8000544:	180b883a 	mov	r5,r3
 8000548:	2005883a 	mov	r2,r4
 800054c:	2807883a 	mov	r3,r5
 8000550:	1009883a 	mov	r4,r2
 8000554:	180b883a 	mov	r5,r3
 8000558:	80091500 	call	8009150 <__truncdfsf2>
 800055c:	1007883a 	mov	r3,r2
 8000560:	e0fff015 	stw	r3,-64(fp)
	if (dsq < 1200){
 8000564:	015125b4 	movhi	r5,17558
 8000568:	e13ff017 	ldw	r4,-64(fp)
 800056c:	8005e280 	call	8005e28 <__lesf2>
 8000570:	1000020e 	bge	r2,zero,800057c <ai_player+0x310>
		return 12;
 8000574:	00800304 	movi	r2,12
 8000578:	0001a106 	br	8000c00 <ai_player+0x994>
	}

	// aiming
	int dx = p1x - p2x;
 800057c:	e0ffe017 	ldw	r3,-128(fp)
 8000580:	e0bfe417 	ldw	r2,-112(fp)
 8000584:	1885c83a 	sub	r2,r3,r2
 8000588:	e0bff115 	stw	r2,-60(fp)
	int dx_offset = (dx>0) ? dx - 10 : dx + 10;
 800058c:	e0bff117 	ldw	r2,-60(fp)
 8000590:	0080030e 	bge	zero,r2,80005a0 <ai_player+0x334>
 8000594:	e0bff117 	ldw	r2,-60(fp)
 8000598:	10bffd84 	addi	r2,r2,-10
 800059c:	00000206 	br	80005a8 <ai_player+0x33c>
 80005a0:	e0bff117 	ldw	r2,-60(fp)
 80005a4:	10800284 	addi	r2,r2,10
 80005a8:	e0bff215 	stw	r2,-56(fp)
	int dy = p1y - p2y + 5;
 80005ac:	e0ffe117 	ldw	r3,-124(fp)
 80005b0:	e0bfe517 	ldw	r2,-108(fp)
 80005b4:	1885c83a 	sub	r2,r3,r2
 80005b8:	10800144 	addi	r2,r2,5
 80005bc:	e0bff315 	stw	r2,-52(fp)
	float delta = 100;			// shot accuracy metric
 80005c0:	0090b234 	movhi	r2,17096
 80005c4:	e0bfda15 	stw	r2,-152(fp)
	float delta_sgn = 0;		// shot accuracy metric (signed)
 80005c8:	e03fdb15 	stw	zero,-148(fp)
	int power_tgt = 0;
 80005cc:	e03fdc15 	stw	zero,-144(fp)
	int angle_tgt = 0;
 80005d0:	e03fdd15 	stw	zero,-140(fp)

	for (int i = 0; i < 6; i++){
 80005d4:	e03fde15 	stw	zero,-136(fp)
 80005d8:	00011706 	br	8000a38 <ai_player+0x7cc>
		if (delta < tol){ break; }
 80005dc:	d0a00d17 	ldw	r2,-32716(gp)
 80005e0:	100b883a 	mov	r5,r2
 80005e4:	e13fda17 	ldw	r4,-152(fp)
 80005e8:	8005e280 	call	8005e28 <__lesf2>
 80005ec:	10011616 	blt	r2,zero,8000a48 <ai_player+0x7dc>

		for (int j = 0; j < 9; j++){
 80005f0:	e03fdf15 	stw	zero,-132(fp)
 80005f4:	00010806 	br	8000a18 <ai_player+0x7ac>
			if (delta < tol){ break; }
 80005f8:	d0a00d17 	ldw	r2,-32716(gp)
 80005fc:	100b883a 	mov	r5,r2
 8000600:	e13fda17 	ldw	r4,-152(fp)
 8000604:	8005e280 	call	8005e28 <__lesf2>
 8000608:	10010716 	blt	r2,zero,8000a28 <ai_player+0x7bc>

			if ( (dx > 20) && (j < 3) ){ continue; }
 800060c:	e0bff117 	ldw	r2,-60(fp)
 8000610:	10800550 	cmplti	r2,r2,21
 8000614:	1000031e 	bne	r2,zero,8000624 <ai_player+0x3b8>
 8000618:	e0bfdf17 	ldw	r2,-132(fp)
 800061c:	108000c8 	cmpgei	r2,r2,3
 8000620:	1000f126 	beq	r2,zero,80009e8 <ai_player+0x77c>
			else if ( (dx < 20) && (j > 3) ) { continue; }
 8000624:	e0bff117 	ldw	r2,-60(fp)
 8000628:	10800508 	cmpgei	r2,r2,20
 800062c:	1000031e 	bne	r2,zero,800063c <ai_player+0x3d0>
 8000630:	e0bfdf17 	ldw	r2,-132(fp)
 8000634:	10800110 	cmplti	r2,r2,4
 8000638:	1000ed26 	beq	r2,zero,80009f0 <ai_player+0x784>
			else if ( (abs(dx) <= tol) && (j != 3) ) { continue; }
 800063c:	e0bff117 	ldw	r2,-60(fp)
 8000640:	1000010e 	bge	r2,zero,8000648 <ai_player+0x3dc>
 8000644:	0085c83a 	sub	r2,zero,r2
 8000648:	1009883a 	mov	r4,r2
 800064c:	80068040 	call	8006804 <__floatsisf>
 8000650:	1007883a 	mov	r3,r2
 8000654:	d0a00d17 	ldw	r2,-32716(gp)
 8000658:	100b883a 	mov	r5,r2
 800065c:	1809883a 	mov	r4,r3
 8000660:	8005e280 	call	8005e28 <__lesf2>
 8000664:	00800316 	blt	zero,r2,8000674 <ai_player+0x408>
 8000668:	e0bfdf17 	ldw	r2,-132(fp)
 800066c:	108000e0 	cmpeqi	r2,r2,3
 8000670:	1000e126 	beq	r2,zero,80009f8 <ai_player+0x78c>

			// implied a = 1/12 = 1/2 * gravity, where gravity = 1/6
			int b = (p1vy - vy_lookup[i][j]);
 8000674:	04020074 	movhi	r16,2049
 8000678:	8419f604 	addi	r16,r16,26584
 800067c:	e0bfde17 	ldw	r2,-136(fp)
 8000680:	01400244 	movi	r5,9
 8000684:	1009883a 	mov	r4,r2
 8000688:	800543c0 	call	800543c <__mulsi3>
 800068c:	1007883a 	mov	r3,r2
 8000690:	e0bfdf17 	ldw	r2,-132(fp)
 8000694:	1885883a 	add	r2,r3,r2
 8000698:	1085883a 	add	r2,r2,r2
 800069c:	1085883a 	add	r2,r2,r2
 80006a0:	8085883a 	add	r2,r16,r2
 80006a4:	10800017 	ldw	r2,0(r2)
 80006a8:	e0ffe317 	ldw	r3,-116(fp)
 80006ac:	1885c83a 	sub	r2,r3,r2
 80006b0:	e0bff415 	stw	r2,-48(fp)
			int c = -dy;
 80006b4:	e0bff317 	ldw	r2,-52(fp)
 80006b8:	0085c83a 	sub	r2,zero,r2
 80006bc:	e0bff515 	stw	r2,-44(fp)

			int det = b*b-c/3;
 80006c0:	e17ff417 	ldw	r5,-48(fp)
 80006c4:	e13ff417 	ldw	r4,-48(fp)
 80006c8:	800543c0 	call	800543c <__mulsi3>
 80006cc:	1021883a 	mov	r16,r2
 80006d0:	e0bff517 	ldw	r2,-44(fp)
 80006d4:	014000c4 	movi	r5,3
 80006d8:	1009883a 	mov	r4,r2
 80006dc:	80052880 	call	8005288 <__divsi3>
 80006e0:	8085c83a 	sub	r2,r16,r2
 80006e4:	e0bff615 	stw	r2,-40(fp)
			if (det <= 0){ continue; }
 80006e8:	e0bff617 	ldw	r2,-40(fp)
 80006ec:	0080c40e 	bge	zero,r2,8000a00 <ai_player+0x794>

			float t1 = (-b+sqrt((float)det)) * 6;
 80006f0:	e0bff417 	ldw	r2,-48(fp)
 80006f4:	0085c83a 	sub	r2,zero,r2
 80006f8:	1009883a 	mov	r4,r2
 80006fc:	8008f640 	call	8008f64 <__floatsidf>
 8000700:	1021883a 	mov	r16,r2
 8000704:	1823883a 	mov	r17,r3
 8000708:	e13ff617 	ldw	r4,-40(fp)
 800070c:	80068040 	call	8006804 <__floatsisf>
 8000710:	1007883a 	mov	r3,r2
 8000714:	1809883a 	mov	r4,r3
 8000718:	80090400 	call	8009040 <__extendsfdf2>
 800071c:	100b883a 	mov	r5,r2
 8000720:	180d883a 	mov	r6,r3
 8000724:	2809883a 	mov	r4,r5
 8000728:	300b883a 	mov	r5,r6
 800072c:	80039d00 	call	80039d0 <sqrt>
 8000730:	1009883a 	mov	r4,r2
 8000734:	180b883a 	mov	r5,r3
 8000738:	200d883a 	mov	r6,r4
 800073c:	280f883a 	mov	r7,r5
 8000740:	8009883a 	mov	r4,r16
 8000744:	880b883a 	mov	r5,r17
 8000748:	80069280 	call	8006928 <__adddf3>
 800074c:	1009883a 	mov	r4,r2
 8000750:	180b883a 	mov	r5,r3
 8000754:	2005883a 	mov	r2,r4
 8000758:	2807883a 	mov	r3,r5
 800075c:	000d883a 	mov	r6,zero
 8000760:	01d00634 	movhi	r7,16408
 8000764:	1009883a 	mov	r4,r2
 8000768:	180b883a 	mov	r5,r3
 800076c:	8007dfc0 	call	8007dfc <__muldf3>
 8000770:	1009883a 	mov	r4,r2
 8000774:	180b883a 	mov	r5,r3
 8000778:	2005883a 	mov	r2,r4
 800077c:	2807883a 	mov	r3,r5
 8000780:	1009883a 	mov	r4,r2
 8000784:	180b883a 	mov	r5,r3
 8000788:	80091500 	call	8009150 <__truncdfsf2>
 800078c:	1007883a 	mov	r3,r2
 8000790:	e0fff715 	stw	r3,-36(fp)
			if (t1 < 0){ continue; }
 8000794:	000b883a 	mov	r5,zero
 8000798:	e13ff717 	ldw	r4,-36(fp)
 800079c:	8005e280 	call	8005e28 <__lesf2>
 80007a0:	10009916 	blt	r2,zero,8000a08 <ai_player+0x79c>
			float delta1 = t1 * (vx_lookup[i][j]-p1vx) - dx_offset;
 80007a4:	04020074 	movhi	r16,2049
 80007a8:	841a3e04 	addi	r16,r16,26872
 80007ac:	e0bfde17 	ldw	r2,-136(fp)
 80007b0:	01400244 	movi	r5,9
 80007b4:	1009883a 	mov	r4,r2
 80007b8:	800543c0 	call	800543c <__mulsi3>
 80007bc:	1007883a 	mov	r3,r2
 80007c0:	e0bfdf17 	ldw	r2,-132(fp)
 80007c4:	1885883a 	add	r2,r3,r2
 80007c8:	1085883a 	add	r2,r2,r2
 80007cc:	1085883a 	add	r2,r2,r2
 80007d0:	8085883a 	add	r2,r16,r2
 80007d4:	10c00017 	ldw	r3,0(r2)
 80007d8:	e0bfe217 	ldw	r2,-120(fp)
 80007dc:	1885c83a 	sub	r2,r3,r2
 80007e0:	1009883a 	mov	r4,r2
 80007e4:	80068040 	call	8006804 <__floatsisf>
 80007e8:	1007883a 	mov	r3,r2
 80007ec:	e17ff717 	ldw	r5,-36(fp)
 80007f0:	1809883a 	mov	r4,r3
 80007f4:	8005ef00 	call	8005ef0 <__mulsf3>
 80007f8:	1007883a 	mov	r3,r2
 80007fc:	1821883a 	mov	r16,r3
 8000800:	e13ff217 	ldw	r4,-56(fp)
 8000804:	80068040 	call	8006804 <__floatsisf>
 8000808:	1007883a 	mov	r3,r2
 800080c:	180b883a 	mov	r5,r3
 8000810:	8009883a 	mov	r4,r16
 8000814:	80063200 	call	8006320 <__subsf3>
 8000818:	1007883a 	mov	r3,r2
 800081c:	e0fff815 	stw	r3,-32(fp)

			float t2 = (-b-sqrt((float)det)) * 6;
 8000820:	e0bff417 	ldw	r2,-48(fp)
 8000824:	0085c83a 	sub	r2,zero,r2
 8000828:	1009883a 	mov	r4,r2
 800082c:	8008f640 	call	8008f64 <__floatsidf>
 8000830:	1021883a 	mov	r16,r2
 8000834:	1823883a 	mov	r17,r3
 8000838:	e13ff617 	ldw	r4,-40(fp)
 800083c:	80068040 	call	8006804 <__floatsisf>
 8000840:	1007883a 	mov	r3,r2
 8000844:	1809883a 	mov	r4,r3
 8000848:	80090400 	call	8009040 <__extendsfdf2>
 800084c:	100b883a 	mov	r5,r2
 8000850:	180d883a 	mov	r6,r3
 8000854:	2809883a 	mov	r4,r5
 8000858:	300b883a 	mov	r5,r6
 800085c:	80039d00 	call	80039d0 <sqrt>
 8000860:	1009883a 	mov	r4,r2
 8000864:	180b883a 	mov	r5,r3
 8000868:	200d883a 	mov	r6,r4
 800086c:	280f883a 	mov	r7,r5
 8000870:	8009883a 	mov	r4,r16
 8000874:	880b883a 	mov	r5,r17
 8000878:	80086680 	call	8008668 <__subdf3>
 800087c:	1009883a 	mov	r4,r2
 8000880:	180b883a 	mov	r5,r3
 8000884:	2005883a 	mov	r2,r4
 8000888:	2807883a 	mov	r3,r5
 800088c:	000d883a 	mov	r6,zero
 8000890:	01d00634 	movhi	r7,16408
 8000894:	1009883a 	mov	r4,r2
 8000898:	180b883a 	mov	r5,r3
 800089c:	8007dfc0 	call	8007dfc <__muldf3>
 80008a0:	1009883a 	mov	r4,r2
 80008a4:	180b883a 	mov	r5,r3
 80008a8:	2005883a 	mov	r2,r4
 80008ac:	2807883a 	mov	r3,r5
 80008b0:	1009883a 	mov	r4,r2
 80008b4:	180b883a 	mov	r5,r3
 80008b8:	80091500 	call	8009150 <__truncdfsf2>
 80008bc:	1007883a 	mov	r3,r2
 80008c0:	e0fff915 	stw	r3,-28(fp)
			float delta2 = (t2>0)? t2 * (vx_lookup[i][j]-p1vx) - dx_offset : delta1;
 80008c4:	000b883a 	mov	r5,zero
 80008c8:	e13ff917 	ldw	r4,-28(fp)
 80008cc:	8005d6c0 	call	8005d6c <__gesf2>
 80008d0:	0080200e 	bge	zero,r2,8000954 <ai_player+0x6e8>
 80008d4:	04020074 	movhi	r16,2049
 80008d8:	841a3e04 	addi	r16,r16,26872
 80008dc:	e0bfde17 	ldw	r2,-136(fp)
 80008e0:	01400244 	movi	r5,9
 80008e4:	1009883a 	mov	r4,r2
 80008e8:	800543c0 	call	800543c <__mulsi3>
 80008ec:	1007883a 	mov	r3,r2
 80008f0:	e0bfdf17 	ldw	r2,-132(fp)
 80008f4:	1885883a 	add	r2,r3,r2
 80008f8:	1085883a 	add	r2,r2,r2
 80008fc:	1085883a 	add	r2,r2,r2
 8000900:	8085883a 	add	r2,r16,r2
 8000904:	10c00017 	ldw	r3,0(r2)
 8000908:	e0bfe217 	ldw	r2,-120(fp)
 800090c:	1885c83a 	sub	r2,r3,r2
 8000910:	1009883a 	mov	r4,r2
 8000914:	80068040 	call	8006804 <__floatsisf>
 8000918:	1007883a 	mov	r3,r2
 800091c:	e17ff917 	ldw	r5,-28(fp)
 8000920:	1809883a 	mov	r4,r3
 8000924:	8005ef00 	call	8005ef0 <__mulsf3>
 8000928:	1007883a 	mov	r3,r2
 800092c:	1821883a 	mov	r16,r3
 8000930:	e13ff217 	ldw	r4,-56(fp)
 8000934:	80068040 	call	8006804 <__floatsisf>
 8000938:	1007883a 	mov	r3,r2
 800093c:	180b883a 	mov	r5,r3
 8000940:	8009883a 	mov	r4,r16
 8000944:	80063200 	call	8006320 <__subsf3>
 8000948:	1007883a 	mov	r3,r2
 800094c:	1805883a 	mov	r2,r3
 8000950:	00000106 	br	8000958 <ai_player+0x6ec>
 8000954:	e0bff817 	ldw	r2,-32(fp)
 8000958:	e0bffa15 	stw	r2,-24(fp)

			float delta0 = (fabs(delta1)<fabs(delta2)) ? delta1 : delta2;
 800095c:	e0fff817 	ldw	r3,-32(fp)
 8000960:	00a00034 	movhi	r2,32768
 8000964:	10bfffc4 	addi	r2,r2,-1
 8000968:	1888703a 	and	r4,r3,r2
 800096c:	e0fffa17 	ldw	r3,-24(fp)
 8000970:	00a00034 	movhi	r2,32768
 8000974:	10bfffc4 	addi	r2,r2,-1
 8000978:	1884703a 	and	r2,r3,r2
 800097c:	100b883a 	mov	r5,r2
 8000980:	8005e280 	call	8005e28 <__lesf2>
 8000984:	1000020e 	bge	r2,zero,8000990 <ai_player+0x724>
 8000988:	e0bff817 	ldw	r2,-32(fp)
 800098c:	00000106 	br	8000994 <ai_player+0x728>
 8000990:	e0bffa17 	ldw	r2,-24(fp)
 8000994:	e0bffb15 	stw	r2,-20(fp)

			if (fabs(delta0) < delta){
 8000998:	e0fffb17 	ldw	r3,-20(fp)
 800099c:	00a00034 	movhi	r2,32768
 80009a0:	10bfffc4 	addi	r2,r2,-1
 80009a4:	1884703a 	and	r2,r3,r2
 80009a8:	e17fda17 	ldw	r5,-152(fp)
 80009ac:	1009883a 	mov	r4,r2
 80009b0:	8005e280 	call	8005e28 <__lesf2>
 80009b4:	1000150e 	bge	r2,zero,8000a0c <ai_player+0x7a0>
				delta = fabs(delta0);
 80009b8:	e0fffb17 	ldw	r3,-20(fp)
 80009bc:	00a00034 	movhi	r2,32768
 80009c0:	10bfffc4 	addi	r2,r2,-1
 80009c4:	1884703a 	and	r2,r3,r2
 80009c8:	e0bfda15 	stw	r2,-152(fp)
				delta_sgn = delta0;
 80009cc:	e0bffb17 	ldw	r2,-20(fp)
 80009d0:	e0bfdb15 	stw	r2,-148(fp)
				power_tgt = i;
 80009d4:	e0bfde17 	ldw	r2,-136(fp)
 80009d8:	e0bfdc15 	stw	r2,-144(fp)
				angle_tgt = j;
 80009dc:	e0bfdf17 	ldw	r2,-132(fp)
 80009e0:	e0bfdd15 	stw	r2,-140(fp)
 80009e4:	00000906 	br	8000a0c <ai_player+0x7a0>
		if (delta < tol){ break; }

		for (int j = 0; j < 9; j++){
			if (delta < tol){ break; }

			if ( (dx > 20) && (j < 3) ){ continue; }
 80009e8:	0001883a 	nop
 80009ec:	00000706 	br	8000a0c <ai_player+0x7a0>
			else if ( (dx < 20) && (j > 3) ) { continue; }
 80009f0:	0001883a 	nop
 80009f4:	00000506 	br	8000a0c <ai_player+0x7a0>
			else if ( (abs(dx) <= tol) && (j != 3) ) { continue; }
 80009f8:	0001883a 	nop
 80009fc:	00000306 	br	8000a0c <ai_player+0x7a0>
			// implied a = 1/12 = 1/2 * gravity, where gravity = 1/6
			int b = (p1vy - vy_lookup[i][j]);
			int c = -dy;

			int det = b*b-c/3;
			if (det <= 0){ continue; }
 8000a00:	0001883a 	nop
 8000a04:	00000106 	br	8000a0c <ai_player+0x7a0>

			float t1 = (-b+sqrt((float)det)) * 6;
			if (t1 < 0){ continue; }
 8000a08:	0001883a 	nop
	int angle_tgt = 0;

	for (int i = 0; i < 6; i++){
		if (delta < tol){ break; }

		for (int j = 0; j < 9; j++){
 8000a0c:	e0bfdf17 	ldw	r2,-132(fp)
 8000a10:	10800044 	addi	r2,r2,1
 8000a14:	e0bfdf15 	stw	r2,-132(fp)
 8000a18:	e0bfdf17 	ldw	r2,-132(fp)
 8000a1c:	10800250 	cmplti	r2,r2,9
 8000a20:	103ef51e 	bne	r2,zero,80005f8 <__alt_data_end+0xfc0005f8>
 8000a24:	00000106 	br	8000a2c <ai_player+0x7c0>
			if (delta < tol){ break; }
 8000a28:	0001883a 	nop
	float delta = 100;			// shot accuracy metric
	float delta_sgn = 0;		// shot accuracy metric (signed)
	int power_tgt = 0;
	int angle_tgt = 0;

	for (int i = 0; i < 6; i++){
 8000a2c:	e0bfde17 	ldw	r2,-136(fp)
 8000a30:	10800044 	addi	r2,r2,1
 8000a34:	e0bfde15 	stw	r2,-136(fp)
 8000a38:	e0bfde17 	ldw	r2,-136(fp)
 8000a3c:	10800190 	cmplti	r2,r2,6
 8000a40:	103ee61e 	bne	r2,zero,80005dc <__alt_data_end+0xfc0005dc>
 8000a44:	00000106 	br	8000a4c <ai_player+0x7e0>
		if (delta < tol){ break; }
 8000a48:	0001883a 	nop
			}
		}
	}

	printf(" Power = %i(%i), Angle = %i(%i), Cooldown = %i, Delta_sgn = %f\n",
			*p2_pow, power_tgt, *p2_ang, angle_tgt, cooldown, delta_sgn);
 8000a4c:	d0a00a17 	ldw	r2,-32728(gp)
 8000a50:	1080000b 	ldhu	r2,0(r2)
				angle_tgt = j;
			}
		}
	}

	printf(" Power = %i(%i), Angle = %i(%i), Cooldown = %i, Delta_sgn = %f\n",
 8000a54:	147fffcc 	andi	r17,r2,65535
 8000a58:	8c60001c 	xori	r17,r17,32768
 8000a5c:	8c600004 	addi	r17,r17,-32768
			*p2_pow, power_tgt, *p2_ang, angle_tgt, cooldown, delta_sgn);
 8000a60:	d0a00b17 	ldw	r2,-32724(gp)
 8000a64:	1080000b 	ldhu	r2,0(r2)
				angle_tgt = j;
			}
		}
	}

	printf(" Power = %i(%i), Angle = %i(%i), Cooldown = %i, Delta_sgn = %f\n",
 8000a68:	14bfffcc 	andi	r18,r2,65535
 8000a6c:	94a0001c 	xori	r18,r18,32768
 8000a70:	94a00004 	addi	r18,r18,-32768
 8000a74:	d426fb17 	ldw	r16,-25620(gp)
 8000a78:	e13fdb17 	ldw	r4,-148(fp)
 8000a7c:	80090400 	call	8009040 <__extendsfdf2>
 8000a80:	1009883a 	mov	r4,r2
 8000a84:	180b883a 	mov	r5,r3
 8000a88:	d9000215 	stw	r4,8(sp)
 8000a8c:	d9400315 	stw	r5,12(sp)
 8000a90:	dc000115 	stw	r16,4(sp)
 8000a94:	e0bfdd17 	ldw	r2,-140(fp)
 8000a98:	d8800015 	stw	r2,0(sp)
 8000a9c:	900f883a 	mov	r7,r18
 8000aa0:	e1bfdc17 	ldw	r6,-144(fp)
 8000aa4:	880b883a 	mov	r5,r17
 8000aa8:	01020074 	movhi	r4,2049
 8000aac:	21199104 	addi	r4,r4,26180
 8000ab0:	800939c0 	call	800939c <printf>
			*p2_pow, power_tgt, *p2_ang, angle_tgt, cooldown, delta_sgn);
	printf("      p1vy = %i, p2vy = %i   ", p1vy, p2vy);
 8000ab4:	e1bfe717 	ldw	r6,-100(fp)
 8000ab8:	e17fe317 	ldw	r5,-116(fp)
 8000abc:	01020074 	movhi	r4,2049
 8000ac0:	2119a104 	addi	r4,r4,26244
 8000ac4:	800939c0 	call	800939c <printf>

	if (*aimbot_on){
 8000ac8:	d0a00c17 	ldw	r2,-32720(gp)
 8000acc:	10800017 	ldw	r2,0(r2)
 8000ad0:	10000226 	beq	r2,zero,8000adc <ai_player+0x870>
		return key;
 8000ad4:	e0bffc03 	ldbu	r2,-16(fp)
 8000ad8:	00004906 	br	8000c00 <ai_player+0x994>
	}

	if (delta < tol){ // have targeting solution, start aiming
 8000adc:	d0a00d17 	ldw	r2,-32716(gp)
 8000ae0:	100b883a 	mov	r5,r2
 8000ae4:	e13fda17 	ldw	r4,-152(fp)
 8000ae8:	8005e280 	call	8005e28 <__lesf2>
 8000aec:	10001e0e 	bge	r2,zero,8000b68 <ai_player+0x8fc>
		if (*p2_ang < angle_tgt){
 8000af0:	d0a00b17 	ldw	r2,-32724(gp)
 8000af4:	1080000b 	ldhu	r2,0(r2)
 8000af8:	10ffffcc 	andi	r3,r2,65535
 8000afc:	18e0001c 	xori	r3,r3,32768
 8000b00:	18e00004 	addi	r3,r3,-32768
 8000b04:	e0bfdd17 	ldw	r2,-140(fp)
 8000b08:	1880020e 	bge	r3,r2,8000b14 <ai_player+0x8a8>
			return 18; // turn right
 8000b0c:	00800484 	movi	r2,18
 8000b10:	00003b06 	br	8000c00 <ai_player+0x994>
		}
		else if (*p2_ang > angle_tgt){
 8000b14:	d0a00b17 	ldw	r2,-32724(gp)
 8000b18:	1080000b 	ldhu	r2,0(r2)
 8000b1c:	10bfffcc 	andi	r2,r2,65535
 8000b20:	10a0001c 	xori	r2,r2,32768
 8000b24:	10a00004 	addi	r2,r2,-32768
 8000b28:	e0ffdd17 	ldw	r3,-140(fp)
 8000b2c:	1880020e 	bge	r3,r2,8000b38 <ai_player+0x8cc>
			return 24; // turn left
 8000b30:	00800604 	movi	r2,24
 8000b34:	00003206 	br	8000c00 <ai_player+0x994>
		}
		else if ( (*p2_pow != power_tgt)){
 8000b38:	d0a00a17 	ldw	r2,-32728(gp)
 8000b3c:	1080000b 	ldhu	r2,0(r2)
 8000b40:	10ffffcc 	andi	r3,r2,65535
 8000b44:	18e0001c 	xori	r3,r3,32768
 8000b48:	18e00004 	addi	r3,r3,-32768
 8000b4c:	e0bfdc17 	ldw	r2,-144(fp)
 8000b50:	18800226 	beq	r3,r2,8000b5c <ai_player+0x8f0>
			return 14; // charging
 8000b54:	00800384 	movi	r2,14
 8000b58:	00002906 	br	8000c00 <ai_player+0x994>
		}
		else {
			cooldown = 0;
 8000b5c:	d026fb15 	stw	zero,-25620(gp)
			return key; // shooting
 8000b60:	e0bffc03 	ldbu	r2,-16(fp)
 8000b64:	00002606 	br	8000c00 <ai_player+0x994>
		}
	}
	else {				// no targeting solution, adjust position
		if ( (cooldown%3==0) && (p2vy==0) && (p2vx==0) ){
 8000b68:	d0a6fb17 	ldw	r2,-25620(gp)
 8000b6c:	014000c4 	movi	r5,3
 8000b70:	1009883a 	mov	r4,r2
 8000b74:	800530c0 	call	800530c <__modsi3>
 8000b78:	1000061e 	bne	r2,zero,8000b94 <ai_player+0x928>
 8000b7c:	e0bfe717 	ldw	r2,-100(fp)
 8000b80:	1000041e 	bne	r2,zero,8000b94 <ai_player+0x928>
 8000b84:	e0bfe617 	ldw	r2,-104(fp)
 8000b88:	1000021e 	bne	r2,zero,8000b94 <ai_player+0x928>
			return 12; // jumping
 8000b8c:	00800304 	movi	r2,12
 8000b90:	00001b06 	br	8000c00 <ai_player+0x994>
		}
		else if (abs(p2vx) < 2){
 8000b94:	e0bfe617 	ldw	r2,-104(fp)
 8000b98:	10bfffd0 	cmplti	r2,r2,-1
 8000b9c:	1000171e 	bne	r2,zero,8000bfc <ai_player+0x990>
 8000ba0:	e0bfe617 	ldw	r2,-104(fp)
 8000ba4:	10800088 	cmpgei	r2,r2,2
 8000ba8:	1000141e 	bne	r2,zero,8000bfc <ai_player+0x990>
			if (delta_sgn < 0){
 8000bac:	000b883a 	mov	r5,zero
 8000bb0:	e13fdb17 	ldw	r4,-148(fp)
 8000bb4:	8005e280 	call	8005e28 <__lesf2>
 8000bb8:	1000020e 	bge	r2,zero,8000bc4 <ai_player+0x958>
				return 15; // move right
 8000bbc:	008003c4 	movi	r2,15
 8000bc0:	00000f06 	br	8000c00 <ai_player+0x994>
			}
			else if (delta_sgn > 0){
 8000bc4:	000b883a 	mov	r5,zero
 8000bc8:	e13fdb17 	ldw	r4,-148(fp)
 8000bcc:	8005d6c0 	call	8005d6c <__gesf2>
 8000bd0:	0080020e 	bge	zero,r2,8000bdc <ai_player+0x970>
				return 13; // move left
 8000bd4:	00800344 	movi	r2,13
 8000bd8:	00000906 	br	8000c00 <ai_player+0x994>
			}
			else {
				if (dx > 0){
 8000bdc:	e0bff117 	ldw	r2,-60(fp)
 8000be0:	0080020e 	bge	zero,r2,8000bec <ai_player+0x980>
					return 15; // move right
 8000be4:	008003c4 	movi	r2,15
 8000be8:	00000506 	br	8000c00 <ai_player+0x994>
				}
				else if (dx < 0){
 8000bec:	e0bff117 	ldw	r2,-60(fp)
 8000bf0:	1000020e 	bge	r2,zero,8000bfc <ai_player+0x990>
					return 13; // move left
 8000bf4:	00800344 	movi	r2,13
 8000bf8:	00000106 	br	8000c00 <ai_player+0x994>
				}
			}
		}
	}

	return key;
 8000bfc:	e0bffc03 	ldbu	r2,-16(fp)

}
 8000c00:	e6fffd04 	addi	sp,fp,-12
 8000c04:	dfc00417 	ldw	ra,16(sp)
 8000c08:	df000317 	ldw	fp,12(sp)
 8000c0c:	dc800217 	ldw	r18,8(sp)
 8000c10:	dc400117 	ldw	r17,4(sp)
 8000c14:	dc000017 	ldw	r16,0(sp)
 8000c18:	dec00504 	addi	sp,sp,20
 8000c1c:	f800283a 	ret

08000c20 <GetDriverandReport>:

BYTE GetDriverandReport() {
 8000c20:	defff604 	addi	sp,sp,-40
 8000c24:	dfc00915 	stw	ra,36(sp)
 8000c28:	df000815 	stw	fp,32(sp)
 8000c2c:	df000804 	addi	fp,sp,32
	BYTE i;
	BYTE rcode;
	BYTE device = 0xFF;
 8000c30:	00bfffc4 	movi	r2,-1
 8000c34:	e0bffd45 	stb	r2,-11(fp)
	BYTE tmpbyte;

	DEV_RECORD* tpl_ptr;
	printf("Reached USB_STATE_RUNNING (0x40)\n");
 8000c38:	01020074 	movhi	r4,2049
 8000c3c:	2119a904 	addi	r4,r4,26276
 8000c40:	80094b80 	call	80094b8 <puts>
	for (i = 1; i < USB_NUMDEVICES; i++) {
 8000c44:	00800044 	movi	r2,1
 8000c48:	e0bffd05 	stb	r2,-12(fp)
 8000c4c:	00001f06 	br	8000ccc <GetDriverandReport+0xac>
		tpl_ptr = GetDevtable(i);
 8000c50:	e0bffd03 	ldbu	r2,-12(fp)
 8000c54:	1009883a 	mov	r4,r2
 8000c58:	80034500 	call	8003450 <GetDevtable>
 8000c5c:	e0bffe15 	stw	r2,-8(fp)
		if (tpl_ptr->epinfo != NULL) {
 8000c60:	e0bffe17 	ldw	r2,-8(fp)
 8000c64:	10800017 	ldw	r2,0(r2)
 8000c68:	10001526 	beq	r2,zero,8000cc0 <GetDriverandReport+0xa0>
			printf("Device: %d", i);
 8000c6c:	e0bffd03 	ldbu	r2,-12(fp)
 8000c70:	100b883a 	mov	r5,r2
 8000c74:	01020074 	movhi	r4,2049
 8000c78:	2119b204 	addi	r4,r4,26312
 8000c7c:	800939c0 	call	800939c <printf>
			printf("%s \n", devclasses[tpl_ptr->devclass]);
 8000c80:	e0bffe17 	ldw	r2,-8(fp)
 8000c84:	10800103 	ldbu	r2,4(r2)
 8000c88:	10c03fcc 	andi	r3,r2,255
 8000c8c:	00820074 	movhi	r2,2049
 8000c90:	10998d04 	addi	r2,r2,26164
 8000c94:	18c7883a 	add	r3,r3,r3
 8000c98:	18c7883a 	add	r3,r3,r3
 8000c9c:	10c5883a 	add	r2,r2,r3
 8000ca0:	10800017 	ldw	r2,0(r2)
 8000ca4:	100b883a 	mov	r5,r2
 8000ca8:	01020074 	movhi	r4,2049
 8000cac:	2119b504 	addi	r4,r4,26324
 8000cb0:	800939c0 	call	800939c <printf>
			device = tpl_ptr->devclass;
 8000cb4:	e0bffe17 	ldw	r2,-8(fp)
 8000cb8:	10800103 	ldbu	r2,4(r2)
 8000cbc:	e0bffd45 	stb	r2,-11(fp)
	BYTE device = 0xFF;
	BYTE tmpbyte;

	DEV_RECORD* tpl_ptr;
	printf("Reached USB_STATE_RUNNING (0x40)\n");
	for (i = 1; i < USB_NUMDEVICES; i++) {
 8000cc0:	e0bffd03 	ldbu	r2,-12(fp)
 8000cc4:	10800044 	addi	r2,r2,1
 8000cc8:	e0bffd05 	stb	r2,-12(fp)
 8000ccc:	e0bffd03 	ldbu	r2,-12(fp)
 8000cd0:	10800230 	cmpltui	r2,r2,8
 8000cd4:	103fde1e 	bne	r2,zero,8000c50 <__alt_data_end+0xfc000c50>
			printf("%s \n", devclasses[tpl_ptr->devclass]);
			device = tpl_ptr->devclass;
		}
	}
	//Query rate and protocol
	rcode = XferGetIdle(addr, 0, hid_device.interface, 0, &tmpbyte);
 8000cd8:	d0a00003 	ldbu	r2,-32768(gp)
 8000cdc:	11003fcc 	andi	r4,r2,255
 8000ce0:	d0a6fc43 	ldbu	r2,-25615(gp)
 8000ce4:	10803fcc 	andi	r2,r2,255
 8000ce8:	e0ffff44 	addi	r3,fp,-3
 8000cec:	d8c00415 	stw	r3,16(sp)
 8000cf0:	00c00044 	movi	r3,1
 8000cf4:	d8c00315 	stw	r3,12(sp)
 8000cf8:	d8800215 	stw	r2,8(sp)
 8000cfc:	d8000115 	stw	zero,4(sp)
 8000d00:	d8000015 	stw	zero,0(sp)
 8000d04:	01c00084 	movi	r7,2
 8000d08:	01802844 	movi	r6,161
 8000d0c:	000b883a 	mov	r5,zero
 8000d10:	80026740 	call	8002674 <XferCtrlReq>
 8000d14:	e0bfff05 	stb	r2,-4(fp)
	if (rcode) {   //error handling
 8000d18:	e0bfff03 	ldbu	r2,-4(fp)
 8000d1c:	10000926 	beq	r2,zero,8000d44 <GetDriverandReport+0x124>
		printf("GetIdle Error. Error code: ");
 8000d20:	01020074 	movhi	r4,2049
 8000d24:	2119b704 	addi	r4,r4,26332
 8000d28:	800939c0 	call	800939c <printf>
		printf("%x \n", rcode);
 8000d2c:	e0bfff03 	ldbu	r2,-4(fp)
 8000d30:	100b883a 	mov	r5,r2
 8000d34:	01020074 	movhi	r4,2049
 8000d38:	2119be04 	addi	r4,r4,26360
 8000d3c:	800939c0 	call	800939c <printf>
 8000d40:	00000906 	br	8000d68 <GetDriverandReport+0x148>
	} else {
		printf("Update rate: ");
 8000d44:	01020074 	movhi	r4,2049
 8000d48:	2119c004 	addi	r4,r4,26368
 8000d4c:	800939c0 	call	800939c <printf>
		printf("%x \n", tmpbyte);
 8000d50:	e0bfff43 	ldbu	r2,-3(fp)
 8000d54:	10803fcc 	andi	r2,r2,255
 8000d58:	100b883a 	mov	r5,r2
 8000d5c:	01020074 	movhi	r4,2049
 8000d60:	2119be04 	addi	r4,r4,26360
 8000d64:	800939c0 	call	800939c <printf>
	}
	printf("Protocol: ");
 8000d68:	01020074 	movhi	r4,2049
 8000d6c:	2119c404 	addi	r4,r4,26384
 8000d70:	800939c0 	call	800939c <printf>
	rcode = XferGetProto(addr, 0, hid_device.interface, &tmpbyte);
 8000d74:	d0a00003 	ldbu	r2,-32768(gp)
 8000d78:	11003fcc 	andi	r4,r2,255
 8000d7c:	d0a6fc43 	ldbu	r2,-25615(gp)
 8000d80:	10803fcc 	andi	r2,r2,255
 8000d84:	e0ffff44 	addi	r3,fp,-3
 8000d88:	d8c00415 	stw	r3,16(sp)
 8000d8c:	00c00044 	movi	r3,1
 8000d90:	d8c00315 	stw	r3,12(sp)
 8000d94:	d8800215 	stw	r2,8(sp)
 8000d98:	d8000115 	stw	zero,4(sp)
 8000d9c:	d8000015 	stw	zero,0(sp)
 8000da0:	01c000c4 	movi	r7,3
 8000da4:	01802844 	movi	r6,161
 8000da8:	000b883a 	mov	r5,zero
 8000dac:	80026740 	call	8002674 <XferCtrlReq>
 8000db0:	e0bfff05 	stb	r2,-4(fp)
	if (rcode) {   //error handling
 8000db4:	e0bfff03 	ldbu	r2,-4(fp)
 8000db8:	10000926 	beq	r2,zero,8000de0 <GetDriverandReport+0x1c0>
		printf("GetProto Error. Error code ");
 8000dbc:	01020074 	movhi	r4,2049
 8000dc0:	2119c704 	addi	r4,r4,26396
 8000dc4:	800939c0 	call	800939c <printf>
		printf("%x \n", rcode);
 8000dc8:	e0bfff03 	ldbu	r2,-4(fp)
 8000dcc:	100b883a 	mov	r5,r2
 8000dd0:	01020074 	movhi	r4,2049
 8000dd4:	2119be04 	addi	r4,r4,26360
 8000dd8:	800939c0 	call	800939c <printf>
 8000ddc:	00000606 	br	8000df8 <GetDriverandReport+0x1d8>
	} else {
		printf("%d \n", tmpbyte);
 8000de0:	e0bfff43 	ldbu	r2,-3(fp)
 8000de4:	10803fcc 	andi	r2,r2,255
 8000de8:	100b883a 	mov	r5,r2
 8000dec:	01020074 	movhi	r4,2049
 8000df0:	2119ce04 	addi	r4,r4,26424
 8000df4:	800939c0 	call	800939c <printf>
	}
	return device;
 8000df8:	e0bffd43 	ldbu	r2,-11(fp)
}
 8000dfc:	e037883a 	mov	sp,fp
 8000e00:	dfc00117 	ldw	ra,4(sp)
 8000e04:	df000017 	ldw	fp,0(sp)
 8000e08:	dec00204 	addi	sp,sp,8
 8000e0c:	f800283a 	ret

08000e10 <setLED>:

void setLED(int LED) {
 8000e10:	defffe04 	addi	sp,sp,-8
 8000e14:	df000115 	stw	fp,4(sp)
 8000e18:	df000104 	addi	fp,sp,4
 8000e1c:	e13fff15 	stw	r4,-4(fp)
	IOWR_ALTERA_AVALON_PIO_DATA(LEDS_PIO_BASE,
 8000e20:	00809804 	movi	r2,608
 8000e24:	10c00037 	ldwio	r3,0(r2)
 8000e28:	01000044 	movi	r4,1
 8000e2c:	e0bfff17 	ldw	r2,-4(fp)
 8000e30:	2084983a 	sll	r2,r4,r2
 8000e34:	1886b03a 	or	r3,r3,r2
 8000e38:	00809804 	movi	r2,608
 8000e3c:	10c00035 	stwio	r3,0(r2)
			(IORD_ALTERA_AVALON_PIO_DATA(LEDS_PIO_BASE) | (0x001 << LED)));
}
 8000e40:	0001883a 	nop
 8000e44:	e037883a 	mov	sp,fp
 8000e48:	df000017 	ldw	fp,0(sp)
 8000e4c:	dec00104 	addi	sp,sp,4
 8000e50:	f800283a 	ret

08000e54 <clearLED>:

void clearLED(int LED) {
 8000e54:	defffe04 	addi	sp,sp,-8
 8000e58:	df000115 	stw	fp,4(sp)
 8000e5c:	df000104 	addi	fp,sp,4
 8000e60:	e13fff15 	stw	r4,-4(fp)
	IOWR_ALTERA_AVALON_PIO_DATA(LEDS_PIO_BASE,
 8000e64:	00809804 	movi	r2,608
 8000e68:	10c00037 	ldwio	r3,0(r2)
 8000e6c:	01000044 	movi	r4,1
 8000e70:	e0bfff17 	ldw	r2,-4(fp)
 8000e74:	2084983a 	sll	r2,r4,r2
 8000e78:	0084303a 	nor	r2,zero,r2
 8000e7c:	1886703a 	and	r3,r3,r2
 8000e80:	00809804 	movi	r2,608
 8000e84:	10c00035 	stwio	r3,0(r2)
			(IORD_ALTERA_AVALON_PIO_DATA(LEDS_PIO_BASE) & ~(0x001 << LED)));

}
 8000e88:	0001883a 	nop
 8000e8c:	e037883a 	mov	sp,fp
 8000e90:	df000017 	ldw	fp,0(sp)
 8000e94:	dec00104 	addi	sp,sp,4
 8000e98:	f800283a 	ret

08000e9c <printSignedHex0>:

void printSignedHex0(signed char value) {
 8000e9c:	defffc04 	addi	sp,sp,-16
 8000ea0:	dfc00315 	stw	ra,12(sp)
 8000ea4:	df000215 	stw	fp,8(sp)
 8000ea8:	df000204 	addi	fp,sp,8
 8000eac:	2005883a 	mov	r2,r4
 8000eb0:	e0bfff05 	stb	r2,-4(fp)
	BYTE tens = 0;
 8000eb4:	e03ffe05 	stb	zero,-8(fp)
	BYTE ones = 0;
 8000eb8:	e03ffe45 	stb	zero,-7(fp)
	WORD pio_val = IORD_ALTERA_AVALON_PIO_DATA(HEX_DIGITS_PIO_BASE);
 8000ebc:	00809c04 	movi	r2,624
 8000ec0:	10800037 	ldwio	r2,0(r2)
 8000ec4:	e0bffe8d 	sth	r2,-6(fp)
	if (value < 0) {
 8000ec8:	e0bfff07 	ldb	r2,-4(fp)
 8000ecc:	1000060e 	bge	r2,zero,8000ee8 <printSignedHex0+0x4c>
		setLED(11);
 8000ed0:	010002c4 	movi	r4,11
 8000ed4:	8000e100 	call	8000e10 <setLED>
		value = -value;
 8000ed8:	e0bfff03 	ldbu	r2,-4(fp)
 8000edc:	0085c83a 	sub	r2,zero,r2
 8000ee0:	e0bfff05 	stb	r2,-4(fp)
 8000ee4:	00000206 	br	8000ef0 <printSignedHex0+0x54>
	} else {
		clearLED(11);
 8000ee8:	010002c4 	movi	r4,11
 8000eec:	8000e540 	call	8000e54 <clearLED>
	}
	//handled hundreds
	if (value / 100)
 8000ef0:	e0bfff03 	ldbu	r2,-4(fp)
 8000ef4:	108018c4 	addi	r2,r2,99
 8000ef8:	10803fcc 	andi	r2,r2,255
 8000efc:	108031f0 	cmpltui	r2,r2,199
 8000f00:	1000031e 	bne	r2,zero,8000f10 <printSignedHex0+0x74>
		setLED(13);
 8000f04:	01000344 	movi	r4,13
 8000f08:	8000e100 	call	8000e10 <setLED>
 8000f0c:	00000206 	br	8000f18 <printSignedHex0+0x7c>
	else
		clearLED(13);
 8000f10:	01000344 	movi	r4,13
 8000f14:	8000e540 	call	8000e54 <clearLED>

	value = value % 100;
 8000f18:	e0bfff07 	ldb	r2,-4(fp)
 8000f1c:	01401904 	movi	r5,100
 8000f20:	1009883a 	mov	r4,r2
 8000f24:	800530c0 	call	800530c <__modsi3>
 8000f28:	e0bfff05 	stb	r2,-4(fp)
	tens = value / 10;
 8000f2c:	e0bfff07 	ldb	r2,-4(fp)
 8000f30:	01400284 	movi	r5,10
 8000f34:	1009883a 	mov	r4,r2
 8000f38:	80052880 	call	8005288 <__divsi3>
 8000f3c:	e0bffe05 	stb	r2,-8(fp)
	ones = value % 10;
 8000f40:	e0bfff07 	ldb	r2,-4(fp)
 8000f44:	01400284 	movi	r5,10
 8000f48:	1009883a 	mov	r4,r2
 8000f4c:	800530c0 	call	800530c <__modsi3>
 8000f50:	e0bffe45 	stb	r2,-7(fp)

	pio_val &= 0x00FF;
 8000f54:	e0bffe8b 	ldhu	r2,-6(fp)
 8000f58:	10803fcc 	andi	r2,r2,255
 8000f5c:	e0bffe8d 	sth	r2,-6(fp)
	pio_val |= (tens << 12);
 8000f60:	e0bffe03 	ldbu	r2,-8(fp)
 8000f64:	1004933a 	slli	r2,r2,12
 8000f68:	1007883a 	mov	r3,r2
 8000f6c:	e0bffe8b 	ldhu	r2,-6(fp)
 8000f70:	1884b03a 	or	r2,r3,r2
 8000f74:	e0bffe8d 	sth	r2,-6(fp)
	pio_val |= (ones << 8);
 8000f78:	e0bffe43 	ldbu	r2,-7(fp)
 8000f7c:	1004923a 	slli	r2,r2,8
 8000f80:	1007883a 	mov	r3,r2
 8000f84:	e0bffe8b 	ldhu	r2,-6(fp)
 8000f88:	1884b03a 	or	r2,r3,r2
 8000f8c:	e0bffe8d 	sth	r2,-6(fp)

	IOWR_ALTERA_AVALON_PIO_DATA(HEX_DIGITS_PIO_BASE, pio_val);
 8000f90:	e0fffe8b 	ldhu	r3,-6(fp)
 8000f94:	00809c04 	movi	r2,624
 8000f98:	10c00035 	stwio	r3,0(r2)
}
 8000f9c:	0001883a 	nop
 8000fa0:	e037883a 	mov	sp,fp
 8000fa4:	dfc00117 	ldw	ra,4(sp)
 8000fa8:	df000017 	ldw	fp,0(sp)
 8000fac:	dec00204 	addi	sp,sp,8
 8000fb0:	f800283a 	ret

08000fb4 <printSignedHex1>:

void printSignedHex1(signed char value) {
 8000fb4:	defffb04 	addi	sp,sp,-20
 8000fb8:	dfc00415 	stw	ra,16(sp)
 8000fbc:	df000315 	stw	fp,12(sp)
 8000fc0:	df000304 	addi	fp,sp,12
 8000fc4:	2005883a 	mov	r2,r4
 8000fc8:	e0bfff05 	stb	r2,-4(fp)
	BYTE tens = 0;
 8000fcc:	e03ffd05 	stb	zero,-12(fp)
	BYTE ones = 0;
 8000fd0:	e03ffd45 	stb	zero,-11(fp)
	DWORD pio_val = IORD_ALTERA_AVALON_PIO_DATA(HEX_DIGITS_PIO_BASE);
 8000fd4:	00809c04 	movi	r2,624
 8000fd8:	10800037 	ldwio	r2,0(r2)
 8000fdc:	e0bffe15 	stw	r2,-8(fp)
	if (value < 0) {
 8000fe0:	e0bfff07 	ldb	r2,-4(fp)
 8000fe4:	1000060e 	bge	r2,zero,8001000 <printSignedHex1+0x4c>
		setLED(10);
 8000fe8:	01000284 	movi	r4,10
 8000fec:	8000e100 	call	8000e10 <setLED>
		value = -value;
 8000ff0:	e0bfff03 	ldbu	r2,-4(fp)
 8000ff4:	0085c83a 	sub	r2,zero,r2
 8000ff8:	e0bfff05 	stb	r2,-4(fp)
 8000ffc:	00000206 	br	8001008 <printSignedHex1+0x54>
	} else {
		clearLED(10);
 8001000:	01000284 	movi	r4,10
 8001004:	8000e540 	call	8000e54 <clearLED>
	}
	//handled hundreds
	if (value / 100)
 8001008:	e0bfff03 	ldbu	r2,-4(fp)
 800100c:	108018c4 	addi	r2,r2,99
 8001010:	10803fcc 	andi	r2,r2,255
 8001014:	108031f0 	cmpltui	r2,r2,199
 8001018:	1000031e 	bne	r2,zero,8001028 <printSignedHex1+0x74>
		setLED(12);
 800101c:	01000304 	movi	r4,12
 8001020:	8000e100 	call	8000e10 <setLED>
 8001024:	00000206 	br	8001030 <printSignedHex1+0x7c>
	else
		clearLED(12);
 8001028:	01000304 	movi	r4,12
 800102c:	8000e540 	call	8000e54 <clearLED>

	value = value % 100;
 8001030:	e0bfff07 	ldb	r2,-4(fp)
 8001034:	01401904 	movi	r5,100
 8001038:	1009883a 	mov	r4,r2
 800103c:	800530c0 	call	800530c <__modsi3>
 8001040:	e0bfff05 	stb	r2,-4(fp)
	tens = value / 10;
 8001044:	e0bfff07 	ldb	r2,-4(fp)
 8001048:	01400284 	movi	r5,10
 800104c:	1009883a 	mov	r4,r2
 8001050:	80052880 	call	8005288 <__divsi3>
 8001054:	e0bffd05 	stb	r2,-12(fp)
	ones = value % 10;
 8001058:	e0bfff07 	ldb	r2,-4(fp)
 800105c:	01400284 	movi	r5,10
 8001060:	1009883a 	mov	r4,r2
 8001064:	800530c0 	call	800530c <__modsi3>
 8001068:	e0bffd45 	stb	r2,-11(fp)
	tens = value / 10;
 800106c:	e0bfff07 	ldb	r2,-4(fp)
 8001070:	01400284 	movi	r5,10
 8001074:	1009883a 	mov	r4,r2
 8001078:	80052880 	call	8005288 <__divsi3>
 800107c:	e0bffd05 	stb	r2,-12(fp)
	ones = value % 10;
 8001080:	e0bfff07 	ldb	r2,-4(fp)
 8001084:	01400284 	movi	r5,10
 8001088:	1009883a 	mov	r4,r2
 800108c:	800530c0 	call	800530c <__modsi3>
 8001090:	e0bffd45 	stb	r2,-11(fp)

	pio_val &= 0xFF00;
 8001094:	e0bffe17 	ldw	r2,-8(fp)
 8001098:	10bfc00c 	andi	r2,r2,65280
 800109c:	e0bffe15 	stw	r2,-8(fp)
	pio_val |= (tens << 4);
 80010a0:	e0bffd03 	ldbu	r2,-12(fp)
 80010a4:	1004913a 	slli	r2,r2,4
 80010a8:	1007883a 	mov	r3,r2
 80010ac:	e0bffe17 	ldw	r2,-8(fp)
 80010b0:	10c4b03a 	or	r2,r2,r3
 80010b4:	e0bffe15 	stw	r2,-8(fp)
	pio_val |= (ones << 0);
 80010b8:	e0bffd43 	ldbu	r2,-11(fp)
 80010bc:	e0fffe17 	ldw	r3,-8(fp)
 80010c0:	1884b03a 	or	r2,r3,r2
 80010c4:	e0bffe15 	stw	r2,-8(fp)

	IOWR_ALTERA_AVALON_PIO_DATA(HEX_DIGITS_PIO_BASE, pio_val);
 80010c8:	e0fffe17 	ldw	r3,-8(fp)
 80010cc:	00809c04 	movi	r2,624
 80010d0:	10c00035 	stwio	r3,0(r2)
}
 80010d4:	0001883a 	nop
 80010d8:	e037883a 	mov	sp,fp
 80010dc:	dfc00117 	ldw	ra,4(sp)
 80010e0:	df000017 	ldw	fp,0(sp)
 80010e4:	dec00204 	addi	sp,sp,8
 80010e8:	f800283a 	ret

080010ec <setKeycode>:

void setKeycode(WORD keycode)
{
 80010ec:	defffe04 	addi	sp,sp,-8
 80010f0:	df000115 	stw	fp,4(sp)
 80010f4:	df000104 	addi	fp,sp,4
 80010f8:	2005883a 	mov	r2,r4
 80010fc:	e0bfff0d 	sth	r2,-4(fp)
//	IOWR_ALTERA_AVALON_PIO_DATA(0x8002000, keycode);
	IOWR_ALTERA_AVALON_PIO_DATA(KEYCODE_BASE, keycode);
 8001100:	e0ffff0b 	ldhu	r3,-4(fp)
 8001104:	0080ac04 	movi	r2,688
 8001108:	10c00035 	stwio	r3,0(r2)
}
 800110c:	0001883a 	nop
 8001110:	e037883a 	mov	sp,fp
 8001114:	df000017 	ldw	fp,0(sp)
 8001118:	dec00104 	addi	sp,sp,4
 800111c:	f800283a 	ret

08001120 <main>:
int main() {
 8001120:	defff004 	addi	sp,sp,-64
 8001124:	dfc00f15 	stw	ra,60(sp)
 8001128:	df000e15 	stw	fp,56(sp)
 800112c:	df000e04 	addi	fp,sp,56
	BYTE rcode;
	BYTE allKeycodes[] = "ABCDEF";
 8001130:	00801044 	movi	r2,65
 8001134:	e0bffa45 	stb	r2,-23(fp)
 8001138:	00801084 	movi	r2,66
 800113c:	e0bffa85 	stb	r2,-22(fp)
 8001140:	008010c4 	movi	r2,67
 8001144:	e0bffac5 	stb	r2,-21(fp)
 8001148:	00801104 	movi	r2,68
 800114c:	e0bffb05 	stb	r2,-20(fp)
 8001150:	00801144 	movi	r2,69
 8001154:	e0bffb45 	stb	r2,-19(fp)
 8001158:	00801184 	movi	r2,70
 800115c:	e0bffb85 	stb	r2,-18(fp)
 8001160:	e03ffbc5 	stb	zero,-17(fp)
	BYTE * k1;
	BYTE * k2;
	BOOT_MOUSE_REPORT buf;		//USB mouse report
	BOOT_KBD_REPORT kbdbuf;

	BYTE runningdebugflag = 0;//flag to dump out a bunch of information when we first get to USB_STATE_RUNNING
 8001164:	e03ff285 	stb	zero,-54(fp)
	BYTE errorflag = 0; //flag once we get an error device so we don't keep dumping out state info
 8001168:	e03ff2c5 	stb	zero,-53(fp)
	BYTE device;

	printf("initializing MAX3421E...\n");
 800116c:	01020074 	movhi	r4,2049
 8001170:	2119d004 	addi	r4,r4,26432
 8001174:	80094b80 	call	80094b8 <puts>
	MAX3421E_init();
 8001178:	800247c0 	call	800247c <MAX3421E_init>
	printf("initializing USB...\n");
 800117c:	01020074 	movhi	r4,2049
 8001180:	2119d704 	addi	r4,r4,26460
 8001184:	80094b80 	call	80094b8 <puts>
	USB_init();
 8001188:	8002c280 	call	8002c28 <USB_init>
	while (1) {
		printf(".");
 800118c:	01000b84 	movi	r4,46
 8001190:	80093e00 	call	80093e0 <putchar>
		MAX3421E_Task();
 8001194:	80025100 	call	8002510 <MAX3421E_Task>
		for (int i = 0; i < 50; i++) {/* do nothing, artificial delay*/}
 8001198:	e03ff415 	stw	zero,-48(fp)
 800119c:	00000306 	br	80011ac <main+0x8c>
 80011a0:	e0bff417 	ldw	r2,-48(fp)
 80011a4:	10800044 	addi	r2,r2,1
 80011a8:	e0bff415 	stw	r2,-48(fp)
 80011ac:	e0bff417 	ldw	r2,-48(fp)
 80011b0:	10800c90 	cmplti	r2,r2,50
 80011b4:	103ffa1e 	bne	r2,zero,80011a0 <__alt_data_end+0xfc0011a0>
		USB_Task();
 80011b8:	8002cc00 	call	8002cc0 <USB_Task>

		if (GetUsbTaskState() == USB_STATE_RUNNING) {
 80011bc:	80034300 	call	8003430 <GetUsbTaskState>
 80011c0:	10803fcc 	andi	r2,r2,255
 80011c4:	10801018 	cmpnei	r2,r2,64
 80011c8:	1000bf1e 	bne	r2,zero,80014c8 <main+0x3a8>
			if (!runningdebugflag) {
 80011cc:	e0bff283 	ldbu	r2,-54(fp)
 80011d0:	1000071e 	bne	r2,zero,80011f0 <main+0xd0>
				runningdebugflag = 1;
 80011d4:	00800044 	movi	r2,1
 80011d8:	e0bff285 	stb	r2,-54(fp)
				setLED(9);
 80011dc:	01000244 	movi	r4,9
 80011e0:	8000e100 	call	8000e10 <setLED>
				device = GetDriverandReport();
 80011e4:	8000c200 	call	8000c20 <GetDriverandReport>
 80011e8:	e0bff305 	stb	r2,-52(fp)
 80011ec:	0000d506 	br	8001544 <main+0x424>
			} else if (device == 1) {
 80011f0:	e0bff303 	ldbu	r2,-52(fp)
 80011f4:	10800058 	cmpnei	r2,r2,1
 80011f8:	1000571e 	bne	r2,zero,8001358 <main+0x238>
				//run keyboard debug polling
				rcode = kbdPoll(&kbdbuf);
 80011fc:	e0bffe04 	addi	r2,fp,-8
 8001200:	1009883a 	mov	r4,r2
 8001204:	8001e480 	call	8001e48 <kbdPoll>
 8001208:	e0bff705 	stb	r2,-36(fp)
				if (rcode == hrNAK) {
 800120c:	e0bff703 	ldbu	r2,-36(fp)
 8001210:	10800120 	cmpeqi	r2,r2,4
 8001214:	10000b1e 	bne	r2,zero,8001244 <main+0x124>
					 //continue; //NAK means no new data
				} else if (rcode) {
 8001218:	e0bff703 	ldbu	r2,-36(fp)
 800121c:	10000926 	beq	r2,zero,8001244 <main+0x124>
					printf("Rcode: ");
 8001220:	01020074 	movhi	r4,2049
 8001224:	2119dc04 	addi	r4,r4,26480
 8001228:	800939c0 	call	800939c <printf>
					printf("%x \n", rcode);
 800122c:	e0bff703 	ldbu	r2,-36(fp)
 8001230:	100b883a 	mov	r5,r2
 8001234:	01020074 	movhi	r4,2049
 8001238:	2119be04 	addi	r4,r4,26360
 800123c:	800939c0 	call	800939c <printf>
					continue;
 8001240:	0000ca06 	br	800156c <main+0x44c>
				}
//				printf("keycodes: ");
				for (int i = 0; i < 6; i++) {
 8001244:	e03ff515 	stw	zero,-44(fp)
 8001248:	00000b06 	br	8001278 <main+0x158>
//					printf("%x ", kbdbuf.keycode[i]);
					*(allKeycodes+i) = kbdbuf.keycode[i];
 800124c:	e0bff517 	ldw	r2,-44(fp)
 8001250:	e0fffa44 	addi	r3,fp,-23
 8001254:	1885883a 	add	r2,r3,r2
 8001258:	e13ffe84 	addi	r4,fp,-6
 800125c:	e0fff517 	ldw	r3,-44(fp)
 8001260:	20c7883a 	add	r3,r4,r3
 8001264:	18c00003 	ldbu	r3,0(r3)
 8001268:	10c00005 	stb	r3,0(r2)
					printf("Rcode: ");
					printf("%x \n", rcode);
					continue;
				}
//				printf("keycodes: ");
				for (int i = 0; i < 6; i++) {
 800126c:	e0bff517 	ldw	r2,-44(fp)
 8001270:	10800044 	addi	r2,r2,1
 8001274:	e0bff515 	stw	r2,-44(fp)
 8001278:	e0bff517 	ldw	r2,-44(fp)
 800127c:	10800190 	cmplti	r2,r2,6
 8001280:	103ff21e 	bne	r2,zero,800124c <__alt_data_end+0xfc00124c>
				 * I (0x0C), K (0x0E), J (0x0D), L (0x0F)
				 * U (0x18), O (0x12)
				 *
				 */

				k1 = strpbrk(p1_bytes, allKeycodes);
 8001284:	e0bffa44 	addi	r2,fp,-23
 8001288:	100b883a 	mov	r5,r2
 800128c:	d1200044 	addi	r4,gp,-32767
 8001290:	80095640 	call	8009564 <strpbrk>
 8001294:	e0bff815 	stw	r2,-32(fp)
				if ( k1 != 0 ) {
 8001298:	e0bff817 	ldw	r2,-32(fp)
 800129c:	10000426 	beq	r2,zero,80012b0 <main+0x190>
					p1_key = *k1;
 80012a0:	e0bff817 	ldw	r2,-32(fp)
 80012a4:	10800003 	ldbu	r2,0(r2)
 80012a8:	e0bff205 	stb	r2,-56(fp)
 80012ac:	00000106 	br	80012b4 <main+0x194>
				} else {
					p1_key = 0x00;
 80012b0:	e03ff205 	stb	zero,-56(fp)
				}
				k2 = strpbrk(p2_bytes, allKeycodes);
 80012b4:	e0bffa44 	addi	r2,fp,-23
 80012b8:	100b883a 	mov	r5,r2
 80012bc:	d12001c4 	addi	r4,gp,-32761
 80012c0:	80095640 	call	8009564 <strpbrk>
 80012c4:	e0bff915 	stw	r2,-28(fp)
				if ( k2 != 0 ) {
 80012c8:	e0bff917 	ldw	r2,-28(fp)
 80012cc:	10000426 	beq	r2,zero,80012e0 <main+0x1c0>
					p2_key = *k2;
 80012d0:	e0bff917 	ldw	r2,-28(fp)
 80012d4:	10800003 	ldbu	r2,0(r2)
 80012d8:	e0bff245 	stb	r2,-55(fp)
 80012dc:	00000106 	br	80012e4 <main+0x1c4>
				} else {
					p2_key = 0x00;
 80012e0:	e03ff245 	stb	zero,-55(fp)
				}

				ai_key = ai_player(p2_key);
 80012e4:	e0bff243 	ldbu	r2,-55(fp)
 80012e8:	1009883a 	mov	r4,r2
 80012ec:	800026c0 	call	800026c <ai_player>
 80012f0:	e0bffa05 	stb	r2,-24(fp)
				p2_key = ai_key;
 80012f4:	e0bffa03 	ldbu	r2,-24(fp)
 80012f8:	e0bff245 	stb	r2,-55(fp)

				setKeycode( (p1_key << 8) + p2_key );
 80012fc:	e0bff203 	ldbu	r2,-56(fp)
 8001300:	1004923a 	slli	r2,r2,8
 8001304:	1007883a 	mov	r3,r2
 8001308:	e0bff243 	ldbu	r2,-55(fp)
 800130c:	1885883a 	add	r2,r3,r2
 8001310:	10bfffcc 	andi	r2,r2,65535
 8001314:	1009883a 	mov	r4,r2
 8001318:	80010ec0 	call	80010ec <setKeycode>

				printSignedHex0(p1_key);
 800131c:	e0bff203 	ldbu	r2,-56(fp)
 8001320:	10803fcc 	andi	r2,r2,255
 8001324:	1080201c 	xori	r2,r2,128
 8001328:	10bfe004 	addi	r2,r2,-128
 800132c:	1009883a 	mov	r4,r2
 8001330:	8000e9c0 	call	8000e9c <printSignedHex0>
				printSignedHex1(p2_key);
 8001334:	e0bff243 	ldbu	r2,-55(fp)
 8001338:	10803fcc 	andi	r2,r2,255
 800133c:	1080201c 	xori	r2,r2,128
 8001340:	10bfe004 	addi	r2,r2,-128
 8001344:	1009883a 	mov	r4,r2
 8001348:	8000fb40 	call	8000fb4 <printSignedHex1>
				printf("\n");
 800134c:	01000284 	movi	r4,10
 8001350:	80093e00 	call	80093e0 <putchar>
 8001354:	00007b06 	br	8001544 <main+0x424>
			}

			else if (device == 2) {
 8001358:	e0bff303 	ldbu	r2,-52(fp)
 800135c:	10800098 	cmpnei	r2,r2,2
 8001360:	1000781e 	bne	r2,zero,8001544 <main+0x424>
				rcode = mousePoll(&buf);
 8001364:	e0bffc04 	addi	r2,fp,-16
 8001368:	1009883a 	mov	r4,r2
 800136c:	8001dc00 	call	8001dc0 <mousePoll>
 8001370:	e0bff705 	stb	r2,-36(fp)
				if (rcode == hrNAK) {
 8001374:	e0bff703 	ldbu	r2,-36(fp)
 8001378:	10800118 	cmpnei	r2,r2,4
 800137c:	10007a26 	beq	r2,zero,8001568 <main+0x448>
					//NAK means no new data
					continue;
				} else if (rcode) {
 8001380:	e0bff703 	ldbu	r2,-36(fp)
 8001384:	10000926 	beq	r2,zero,80013ac <main+0x28c>
					printf("Rcode: ");
 8001388:	01020074 	movhi	r4,2049
 800138c:	2119dc04 	addi	r4,r4,26480
 8001390:	800939c0 	call	800939c <printf>
					printf("%x \n", rcode);
 8001394:	e0bff703 	ldbu	r2,-36(fp)
 8001398:	100b883a 	mov	r5,r2
 800139c:	01020074 	movhi	r4,2049
 80013a0:	2119be04 	addi	r4,r4,26360
 80013a4:	800939c0 	call	800939c <printf>
					continue;
 80013a8:	00007006 	br	800156c <main+0x44c>
				}
				printf("X displacement: ");
 80013ac:	01020074 	movhi	r4,2049
 80013b0:	2119de04 	addi	r4,r4,26488
 80013b4:	800939c0 	call	800939c <printf>
				printf("%d ", (signed char) buf.Xdispl);
 80013b8:	e0bffc43 	ldbu	r2,-15(fp)
 80013bc:	10803fcc 	andi	r2,r2,255
 80013c0:	1080201c 	xori	r2,r2,128
 80013c4:	10bfe004 	addi	r2,r2,-128
 80013c8:	100b883a 	mov	r5,r2
 80013cc:	01020074 	movhi	r4,2049
 80013d0:	2119e304 	addi	r4,r4,26508
 80013d4:	800939c0 	call	800939c <printf>
				printSignedHex0((signed char) buf.Xdispl);
 80013d8:	e0bffc43 	ldbu	r2,-15(fp)
 80013dc:	10803fcc 	andi	r2,r2,255
 80013e0:	1080201c 	xori	r2,r2,128
 80013e4:	10bfe004 	addi	r2,r2,-128
 80013e8:	1009883a 	mov	r4,r2
 80013ec:	8000e9c0 	call	8000e9c <printSignedHex0>
				printf("Y displacement: ");
 80013f0:	01020074 	movhi	r4,2049
 80013f4:	2119e404 	addi	r4,r4,26512
 80013f8:	800939c0 	call	800939c <printf>
				printf("%d ", (signed char) buf.Ydispl);
 80013fc:	e0bffc83 	ldbu	r2,-14(fp)
 8001400:	10803fcc 	andi	r2,r2,255
 8001404:	1080201c 	xori	r2,r2,128
 8001408:	10bfe004 	addi	r2,r2,-128
 800140c:	100b883a 	mov	r5,r2
 8001410:	01020074 	movhi	r4,2049
 8001414:	2119e304 	addi	r4,r4,26508
 8001418:	800939c0 	call	800939c <printf>
				printSignedHex1((signed char) buf.Ydispl);
 800141c:	e0bffc83 	ldbu	r2,-14(fp)
 8001420:	10803fcc 	andi	r2,r2,255
 8001424:	1080201c 	xori	r2,r2,128
 8001428:	10bfe004 	addi	r2,r2,-128
 800142c:	1009883a 	mov	r4,r2
 8001430:	8000fb40 	call	8000fb4 <printSignedHex1>
				printf("Buttons: ");
 8001434:	01020074 	movhi	r4,2049
 8001438:	2119e904 	addi	r4,r4,26532
 800143c:	800939c0 	call	800939c <printf>
				printf("%x\n", buf.button);
 8001440:	e0bffc03 	ldbu	r2,-16(fp)
 8001444:	10803fcc 	andi	r2,r2,255
 8001448:	100b883a 	mov	r5,r2
 800144c:	01020074 	movhi	r4,2049
 8001450:	2119ec04 	addi	r4,r4,26544
 8001454:	800939c0 	call	800939c <printf>
				if (buf.button & 0x04)
 8001458:	e0bffc03 	ldbu	r2,-16(fp)
 800145c:	10803fcc 	andi	r2,r2,255
 8001460:	1080010c 	andi	r2,r2,4
 8001464:	10000326 	beq	r2,zero,8001474 <main+0x354>
					setLED(2);
 8001468:	01000084 	movi	r4,2
 800146c:	8000e100 	call	8000e10 <setLED>
 8001470:	00000206 	br	800147c <main+0x35c>
				else
					clearLED(2);
 8001474:	01000084 	movi	r4,2
 8001478:	8000e540 	call	8000e54 <clearLED>
				if (buf.button & 0x02)
 800147c:	e0bffc03 	ldbu	r2,-16(fp)
 8001480:	10803fcc 	andi	r2,r2,255
 8001484:	1080008c 	andi	r2,r2,2
 8001488:	10000326 	beq	r2,zero,8001498 <main+0x378>
					setLED(1);
 800148c:	01000044 	movi	r4,1
 8001490:	8000e100 	call	8000e10 <setLED>
 8001494:	00000206 	br	80014a0 <main+0x380>
				else
					clearLED(1);
 8001498:	01000044 	movi	r4,1
 800149c:	8000e540 	call	8000e54 <clearLED>
				if (buf.button & 0x01)
 80014a0:	e0bffc03 	ldbu	r2,-16(fp)
 80014a4:	10803fcc 	andi	r2,r2,255
 80014a8:	1080004c 	andi	r2,r2,1
 80014ac:	10000326 	beq	r2,zero,80014bc <main+0x39c>
					setLED(0);
 80014b0:	0009883a 	mov	r4,zero
 80014b4:	8000e100 	call	8000e10 <setLED>
 80014b8:	00002206 	br	8001544 <main+0x424>
				else
					clearLED(0);
 80014bc:	0009883a 	mov	r4,zero
 80014c0:	8000e540 	call	8000e54 <clearLED>
 80014c4:	00001f06 	br	8001544 <main+0x424>
			}
		} else if (GetUsbTaskState() == USB_STATE_ERROR) {
 80014c8:	80034300 	call	8003430 <GetUsbTaskState>
 80014cc:	10803fcc 	andi	r2,r2,255
 80014d0:	10803fd8 	cmpnei	r2,r2,255
 80014d4:	10000a1e 	bne	r2,zero,8001500 <main+0x3e0>
			if (!errorflag) {
 80014d8:	e0bff2c3 	ldbu	r2,-53(fp)
 80014dc:	1000191e 	bne	r2,zero,8001544 <main+0x424>
				errorflag = 1;
 80014e0:	00800044 	movi	r2,1
 80014e4:	e0bff2c5 	stb	r2,-53(fp)
				clearLED(9);
 80014e8:	01000244 	movi	r4,9
 80014ec:	8000e540 	call	8000e54 <clearLED>
				printf("USB Error State\n");
 80014f0:	01020074 	movhi	r4,2049
 80014f4:	2119ed04 	addi	r4,r4,26548
 80014f8:	80094b80 	call	80094b8 <puts>
 80014fc:	00001106 	br	8001544 <main+0x424>
				//print out string descriptor here
			}
		} else //not in USB running state
		{

			printf("USB task state: ");
 8001500:	01020074 	movhi	r4,2049
 8001504:	2119f104 	addi	r4,r4,26564
 8001508:	800939c0 	call	800939c <printf>
			printf("%x\n", GetUsbTaskState());
 800150c:	80034300 	call	8003430 <GetUsbTaskState>
 8001510:	10803fcc 	andi	r2,r2,255
 8001514:	100b883a 	mov	r5,r2
 8001518:	01020074 	movhi	r4,2049
 800151c:	2119ec04 	addi	r4,r4,26544
 8001520:	800939c0 	call	800939c <printf>
			if (runningdebugflag) {	//previously running, reset USB hardware just to clear out any funky state, HS/FS etc
 8001524:	e0bff283 	ldbu	r2,-54(fp)
 8001528:	10000326 	beq	r2,zero,8001538 <main+0x418>
				runningdebugflag = 0;
 800152c:	e03ff285 	stb	zero,-54(fp)
				MAX3421E_init();
 8001530:	800247c0 	call	800247c <MAX3421E_init>
				USB_init();
 8001534:	8002c280 	call	8002c28 <USB_init>
			}
			errorflag = 0;
 8001538:	e03ff2c5 	stb	zero,-53(fp)
			clearLED(9);
 800153c:	01000244 	movi	r4,9
 8001540:	8000e540 	call	8000e54 <clearLED>
		}
		for (int i = 0; i < 50; i++) {/* do nothing, artificial delay*/}
 8001544:	e03ff615 	stw	zero,-40(fp)
 8001548:	00000306 	br	8001558 <main+0x438>
 800154c:	e0bff617 	ldw	r2,-40(fp)
 8001550:	10800044 	addi	r2,r2,1
 8001554:	e0bff615 	stw	r2,-40(fp)
 8001558:	e0bff617 	ldw	r2,-40(fp)
 800155c:	10800c90 	cmplti	r2,r2,50
 8001560:	103ffa1e 	bne	r2,zero,800154c <__alt_data_end+0xfc00154c>
 8001564:	003f0906 	br	800118c <__alt_data_end+0xfc00118c>

			else if (device == 2) {
				rcode = mousePoll(&buf);
				if (rcode == hrNAK) {
					//NAK means no new data
					continue;
 8001568:	0001883a 	nop
			}
			errorflag = 0;
			clearLED(9);
		}
		for (int i = 0; i < 50; i++) {/* do nothing, artificial delay*/}
	}
 800156c:	003f0706 	br	800118c <__alt_data_end+0xfc00118c>

08001570 <HIDMProbe>:
/* HID Mouse probe. Called from USB state machine.                          */
/* assumes configuration length is less than 256 bytes                      */
/* looks for Class:03, Subclass: 01, Protocol: 02 in interface descriptor   */
/* sets mouse in boot protocol                                              */
/* assumes single configuration and interface configuration 0               */
BOOL HIDMProbe(BYTE addr, DWORD flags) {
 8001570:	defff204 	addi	sp,sp,-56
 8001574:	dfc00d15 	stw	ra,52(sp)
 8001578:	df000c15 	stw	fp,48(sp)
 800157c:	df000c04 	addi	fp,sp,48
 8001580:	2005883a 	mov	r2,r4
 8001584:	e17fff15 	stw	r5,-4(fp)
 8001588:	e0bffe05 	stb	r2,-8(fp)
	BYTE tmpbyte;
	BYTE rcode;
	BYTE confvalue;
	WORD total_length;
	USB_DESCR* data_ptr = (USB_DESCR *) &bigbuf;
 800158c:	008200b4 	movhi	r2,2050
 8001590:	10a98d04 	addi	r2,r2,-22988
 8001594:	e0bffa15 	stw	r2,-24(fp)
	BYTE* byte_ptr = bigbuf;
 8001598:	008200b4 	movhi	r2,2050
 800159c:	10a98d04 	addi	r2,r2,-22988
 80015a0:	e0bffb15 	stw	r2,-20(fp)
	rcode = XferGetConfDescr(addr, 0, CONF_DESCR_LEN, 0, bigbuf); //get configuration descriptor
 80015a4:	e0fffe03 	ldbu	r3,-8(fp)
 80015a8:	008200b4 	movhi	r2,2050
 80015ac:	10a98d04 	addi	r2,r2,-22988
 80015b0:	d8800415 	stw	r2,16(sp)
 80015b4:	00800244 	movi	r2,9
 80015b8:	d8800315 	stw	r2,12(sp)
 80015bc:	d8000215 	stw	zero,8(sp)
 80015c0:	00800084 	movi	r2,2
 80015c4:	d8800115 	stw	r2,4(sp)
 80015c8:	d8000015 	stw	zero,0(sp)
 80015cc:	01c00184 	movi	r7,6
 80015d0:	01802004 	movi	r6,128
 80015d4:	000b883a 	mov	r5,zero
 80015d8:	1809883a 	mov	r4,r3
 80015dc:	80026740 	call	8002674 <XferCtrlReq>
 80015e0:	e0bffc05 	stb	r2,-16(fp)
	if (rcode) {   //error handling
 80015e4:	e0bffc03 	ldbu	r2,-16(fp)
 80015e8:	10000226 	beq	r2,zero,80015f4 <HIDMProbe+0x84>
		//printf("unable to get configuration descriptor");
		return (FALSE);
 80015ec:	0005883a 	mov	r2,zero
 80015f0:	0000dc06 	br	8001964 <HIDMProbe+0x3f4>
	}
	if (data_ptr->descr.config.wTotalLength > 256) {
 80015f4:	e0bffa17 	ldw	r2,-24(fp)
 80015f8:	1080008b 	ldhu	r2,2(r2)
 80015fc:	10bfffcc 	andi	r2,r2,65535
 8001600:	10804070 	cmpltui	r2,r2,257
 8001604:	1000031e 	bne	r2,zero,8001614 <HIDMProbe+0xa4>
		total_length = 256;
 8001608:	00804004 	movi	r2,256
 800160c:	e0bff90d 	sth	r2,-28(fp)
 8001610:	00000306 	br	8001620 <HIDMProbe+0xb0>
	} else {
		total_length = data_ptr->descr.config.wTotalLength;
 8001614:	e0bffa17 	ldw	r2,-24(fp)
 8001618:	1080008b 	ldhu	r2,2(r2)
 800161c:	e0bff90d 	sth	r2,-28(fp)
	}
	rcode = XferGetConfDescr(addr, 0, total_length, 0, bigbuf); //get the whole configuration
 8001620:	e13ffe03 	ldbu	r4,-8(fp)
 8001624:	e0fff90b 	ldhu	r3,-28(fp)
 8001628:	008200b4 	movhi	r2,2050
 800162c:	10a98d04 	addi	r2,r2,-22988
 8001630:	d8800415 	stw	r2,16(sp)
 8001634:	d8c00315 	stw	r3,12(sp)
 8001638:	d8000215 	stw	zero,8(sp)
 800163c:	00800084 	movi	r2,2
 8001640:	d8800115 	stw	r2,4(sp)
 8001644:	d8000015 	stw	zero,0(sp)
 8001648:	01c00184 	movi	r7,6
 800164c:	01802004 	movi	r6,128
 8001650:	000b883a 	mov	r5,zero
 8001654:	80026740 	call	8002674 <XferCtrlReq>
 8001658:	e0bffc05 	stb	r2,-16(fp)
	if (rcode) {   //error handling
 800165c:	e0bffc03 	ldbu	r2,-16(fp)
 8001660:	10000226 	beq	r2,zero,800166c <HIDMProbe+0xfc>
		//printf("unable to get configuration");
		return (FALSE);
 8001664:	0005883a 	mov	r2,zero
 8001668:	0000be06 	br	8001964 <HIDMProbe+0x3f4>
	}
	confvalue = data_ptr->descr.config.bConfigurationValue;
 800166c:	e0bffa17 	ldw	r2,-24(fp)
 8001670:	10800143 	ldbu	r2,5(r2)
 8001674:	e0bffc45 	stb	r2,-15(fp)
	//printf("checking configuration value (length: %d): ",
	//		data_ptr->descr.config.wTotalLength);
	//for (int i = 0; i < data_ptr->descr.config.wTotalLength; i++) {
		//printf("%x ", (unsigned char) (bigbuf[i] & 0xff));
	//}
	while (byte_ptr < bigbuf + total_length) {
 8001678:	0000b306 	br	8001948 <HIDMProbe+0x3d8>
		if (data_ptr->descr.config.bDescriptorType != USB_DESCRIPTOR_INTERFACE) {
 800167c:	e0bffa17 	ldw	r2,-24(fp)
 8001680:	10800043 	ldbu	r2,1(r2)
 8001684:	10803fcc 	andi	r2,r2,255
 8001688:	10800120 	cmpeqi	r2,r2,4
 800168c:	1000091e 	bne	r2,zero,80016b4 <HIDMProbe+0x144>
			byte_ptr = byte_ptr + data_ptr->descr.config.bLength;
 8001690:	e0bffa17 	ldw	r2,-24(fp)
 8001694:	10800003 	ldbu	r2,0(r2)
 8001698:	10803fcc 	andi	r2,r2,255
 800169c:	e0fffb17 	ldw	r3,-20(fp)
 80016a0:	1885883a 	add	r2,r3,r2
 80016a4:	e0bffb15 	stw	r2,-20(fp)
			data_ptr = (USB_DESCR*) byte_ptr;
 80016a8:	e0bffb17 	ldw	r2,-20(fp)
 80016ac:	e0bffa15 	stw	r2,-24(fp)
 80016b0:	0000a506 	br	8001948 <HIDMProbe+0x3d8>
		} // if( data_ptr->descr.config.bDescriptorType != USB_DESCRIPTOR_INTERFACE
		else {
			//printf("starting interface parsing at byte location %d\n",
			//		data_ptr->descr.config.bLength);
			BYTE class = data_ptr->descr.interface.bInterfaceClass;
 80016b4:	e0bffa17 	ldw	r2,-24(fp)
 80016b8:	10800143 	ldbu	r2,5(r2)
 80016bc:	e0bffc85 	stb	r2,-14(fp)
			BYTE subclass = data_ptr->descr.interface.bInterfaceSubClass;
 80016c0:	e0bffa17 	ldw	r2,-24(fp)
 80016c4:	10800183 	ldbu	r2,6(r2)
 80016c8:	e0bffcc5 	stb	r2,-13(fp)
			BYTE protocol = data_ptr->descr.interface.bInterfaceProtocol;
 80016cc:	e0bffa17 	ldw	r2,-24(fp)
 80016d0:	108001c3 	ldbu	r2,7(r2)
 80016d4:	e0bffd05 	stb	r2,-12(fp)
			//printf("class %x, subclass %x, protocol %x,\n", class, subclass,
			//		protocol);
			//interface descriptor
			if (class == HID_INTF && subclass == BOOT_INTF_SUBCLASS
 80016d8:	e0bffc83 	ldbu	r2,-14(fp)
 80016dc:	108000d8 	cmpnei	r2,r2,3
 80016e0:	1000971e 	bne	r2,zero,8001940 <HIDMProbe+0x3d0>
 80016e4:	e0bffcc3 	ldbu	r2,-13(fp)
 80016e8:	10800058 	cmpnei	r2,r2,1
 80016ec:	1000941e 	bne	r2,zero,8001940 <HIDMProbe+0x3d0>
					&& protocol == HID_PROTOCOL_MOUSE) {
 80016f0:	e0bffd03 	ldbu	r2,-12(fp)
 80016f4:	10800098 	cmpnei	r2,r2,2
 80016f8:	1000911e 	bne	r2,zero,8001940 <HIDMProbe+0x3d0>
				//detected a mouse
				devtable[addr].devclass = HID_M;                  //device class
 80016fc:	e0fffe03 	ldbu	r3,-8(fp)
 8001700:	008200b4 	movhi	r2,2050
 8001704:	10a9cd04 	addi	r2,r2,-22732
 8001708:	180690fa 	slli	r3,r3,3
 800170c:	10c5883a 	add	r2,r2,r3
 8001710:	10800104 	addi	r2,r2,4
 8001714:	00c00084 	movi	r3,2
 8001718:	10c00005 	stb	r3,0(r2)
				tmpbyte = devtable[addr].epinfo->MaxPktSize;
 800171c:	e0fffe03 	ldbu	r3,-8(fp)
 8001720:	008200b4 	movhi	r2,2050
 8001724:	10a9cd04 	addi	r2,r2,-22732
 8001728:	180690fa 	slli	r3,r3,3
 800172c:	10c5883a 	add	r2,r2,r3
 8001730:	10800017 	ldw	r2,0(r2)
 8001734:	1080008b 	ldhu	r2,2(r2)
 8001738:	e0bffd45 	stb	r2,-11(fp)
				HID_init();                         //initialize data structures
 800173c:	8001d800 	call	8001d80 <HID_init>
				devtable[addr].epinfo = hid_ep; //switch endpoint information structure
 8001740:	e0fffe03 	ldbu	r3,-8(fp)
 8001744:	008200b4 	movhi	r2,2050
 8001748:	10a9cd04 	addi	r2,r2,-22732
 800174c:	180690fa 	slli	r3,r3,3
 8001750:	10c7883a 	add	r3,r2,r3
 8001754:	008200b4 	movhi	r2,2050
 8001758:	10a97904 	addi	r2,r2,-23068
 800175c:	18800015 	stw	r2,0(r3)
				devtable[addr].epinfo[0].MaxPktSize = tmpbyte;
 8001760:	e0fffe03 	ldbu	r3,-8(fp)
 8001764:	008200b4 	movhi	r2,2050
 8001768:	10a9cd04 	addi	r2,r2,-22732
 800176c:	180690fa 	slli	r3,r3,3
 8001770:	10c5883a 	add	r2,r2,r3
 8001774:	10800017 	ldw	r2,0(r2)
 8001778:	e0fffd43 	ldbu	r3,-11(fp)
 800177c:	10c0008d 	sth	r3,2(r2)
				hid_device.interface =
						data_ptr->descr.interface.bInterfaceNumber;
 8001780:	e0bffa17 	ldw	r2,-24(fp)
 8001784:	10800083 	ldbu	r2,2(r2)
				devtable[addr].devclass = HID_M;                  //device class
				tmpbyte = devtable[addr].epinfo->MaxPktSize;
				HID_init();                         //initialize data structures
				devtable[addr].epinfo = hid_ep; //switch endpoint information structure
				devtable[addr].epinfo[0].MaxPktSize = tmpbyte;
				hid_device.interface =
 8001788:	d0a6fc45 	stb	r2,-25615(gp)
						data_ptr->descr.interface.bInterfaceNumber;
				hid_device.addr = addr;
 800178c:	e0bffe03 	ldbu	r2,-8(fp)
 8001790:	d0a6fc05 	stb	r2,-25616(gp)
				byte_ptr = byte_ptr + data_ptr->descr.config.bLength;
 8001794:	e0bffa17 	ldw	r2,-24(fp)
 8001798:	10800003 	ldbu	r2,0(r2)
 800179c:	10803fcc 	andi	r2,r2,255
 80017a0:	e0fffb17 	ldw	r3,-20(fp)
 80017a4:	1885883a 	add	r2,r3,r2
 80017a8:	e0bffb15 	stw	r2,-20(fp)
				data_ptr = (USB_DESCR*) byte_ptr;
 80017ac:	e0bffb17 	ldw	r2,-20(fp)
 80017b0:	e0bffa15 	stw	r2,-24(fp)
				while (byte_ptr < bigbuf + total_length) {
 80017b4:	00005b06 	br	8001924 <HIDMProbe+0x3b4>
					if (data_ptr->descr.config.bDescriptorType
 80017b8:	e0bffa17 	ldw	r2,-24(fp)
 80017bc:	10800043 	ldbu	r2,1(r2)
 80017c0:	10803fcc 	andi	r2,r2,255
 80017c4:	10800160 	cmpeqi	r2,r2,5
 80017c8:	1000091e 	bne	r2,zero,80017f0 <HIDMProbe+0x280>
							!= USB_DESCRIPTOR_ENDPOINT) { //skip to endpoint descriptor
						byte_ptr = byte_ptr + data_ptr->descr.config.bLength;
 80017cc:	e0bffa17 	ldw	r2,-24(fp)
 80017d0:	10800003 	ldbu	r2,0(r2)
 80017d4:	10803fcc 	andi	r2,r2,255
 80017d8:	e0fffb17 	ldw	r3,-20(fp)
 80017dc:	1885883a 	add	r2,r3,r2
 80017e0:	e0bffb15 	stw	r2,-20(fp)
						data_ptr = (USB_DESCR*) byte_ptr;
 80017e4:	e0bffb17 	ldw	r2,-20(fp)
 80017e8:	e0bffa15 	stw	r2,-24(fp)
 80017ec:	00004d06 	br	8001924 <HIDMProbe+0x3b4>
					} else {
						/* fill endpoint information structure */
						devtable[addr].epinfo[1].epAddr =
 80017f0:	e0fffe03 	ldbu	r3,-8(fp)
 80017f4:	008200b4 	movhi	r2,2050
 80017f8:	10a9cd04 	addi	r2,r2,-22732
 80017fc:	180690fa 	slli	r3,r3,3
 8001800:	10c5883a 	add	r2,r2,r3
 8001804:	10800017 	ldw	r2,0(r2)
 8001808:	10800204 	addi	r2,r2,8
								data_ptr->descr.endpoint.bEndpointAddress;
 800180c:	e0fffa17 	ldw	r3,-24(fp)
 8001810:	18c00083 	ldbu	r3,2(r3)
							!= USB_DESCRIPTOR_ENDPOINT) { //skip to endpoint descriptor
						byte_ptr = byte_ptr + data_ptr->descr.config.bLength;
						data_ptr = (USB_DESCR*) byte_ptr;
					} else {
						/* fill endpoint information structure */
						devtable[addr].epinfo[1].epAddr =
 8001814:	10c00005 	stb	r3,0(r2)
								data_ptr->descr.endpoint.bEndpointAddress;
						devtable[addr].epinfo[1].Attr =
 8001818:	e0fffe03 	ldbu	r3,-8(fp)
 800181c:	008200b4 	movhi	r2,2050
 8001820:	10a9cd04 	addi	r2,r2,-22732
 8001824:	180690fa 	slli	r3,r3,3
 8001828:	10c5883a 	add	r2,r2,r3
 800182c:	10800017 	ldw	r2,0(r2)
 8001830:	10800204 	addi	r2,r2,8
								data_ptr->descr.endpoint.bmAttributes;
 8001834:	e0fffa17 	ldw	r3,-24(fp)
 8001838:	18c000c3 	ldbu	r3,3(r3)
						data_ptr = (USB_DESCR*) byte_ptr;
					} else {
						/* fill endpoint information structure */
						devtable[addr].epinfo[1].epAddr =
								data_ptr->descr.endpoint.bEndpointAddress;
						devtable[addr].epinfo[1].Attr =
 800183c:	10c00045 	stb	r3,1(r2)
								data_ptr->descr.endpoint.bmAttributes;
						devtable[addr].epinfo[1].MaxPktSize =
 8001840:	e0fffe03 	ldbu	r3,-8(fp)
 8001844:	008200b4 	movhi	r2,2050
 8001848:	10a9cd04 	addi	r2,r2,-22732
 800184c:	180690fa 	slli	r3,r3,3
 8001850:	10c5883a 	add	r2,r2,r3
 8001854:	10800017 	ldw	r2,0(r2)
 8001858:	10800204 	addi	r2,r2,8
								data_ptr->descr.endpoint.wMaxPacketSize;
 800185c:	e0fffa17 	ldw	r3,-24(fp)
 8001860:	18c0010b 	ldhu	r3,4(r3)
						/* fill endpoint information structure */
						devtable[addr].epinfo[1].epAddr =
								data_ptr->descr.endpoint.bEndpointAddress;
						devtable[addr].epinfo[1].Attr =
								data_ptr->descr.endpoint.bmAttributes;
						devtable[addr].epinfo[1].MaxPktSize =
 8001864:	10c0008d 	sth	r3,2(r2)
								data_ptr->descr.endpoint.wMaxPacketSize;
						devtable[addr].epinfo[1].Interval =
 8001868:	e0fffe03 	ldbu	r3,-8(fp)
 800186c:	008200b4 	movhi	r2,2050
 8001870:	10a9cd04 	addi	r2,r2,-22732
 8001874:	180690fa 	slli	r3,r3,3
 8001878:	10c5883a 	add	r2,r2,r3
 800187c:	10800017 	ldw	r2,0(r2)
 8001880:	10800204 	addi	r2,r2,8
								data_ptr->descr.endpoint.bInterval;
 8001884:	e0fffa17 	ldw	r3,-24(fp)
 8001888:	18c00183 	ldbu	r3,6(r3)
								data_ptr->descr.endpoint.bEndpointAddress;
						devtable[addr].epinfo[1].Attr =
								data_ptr->descr.endpoint.bmAttributes;
						devtable[addr].epinfo[1].MaxPktSize =
								data_ptr->descr.endpoint.wMaxPacketSize;
						devtable[addr].epinfo[1].Interval =
 800188c:	10c00105 	stb	r3,4(r2)
								data_ptr->descr.endpoint.bInterval;
						// devtable[ addr ].epinfo[ 1 ].rcvToggle = bmRCVTOG0;
						/* configure device */
						rcode = XferSetConf(addr, 0, confvalue); //set configuration
 8001890:	e0fffe03 	ldbu	r3,-8(fp)
 8001894:	e0bffc43 	ldbu	r2,-15(fp)
 8001898:	d8000415 	stw	zero,16(sp)
 800189c:	d8000315 	stw	zero,12(sp)
 80018a0:	d8000215 	stw	zero,8(sp)
 80018a4:	d8000115 	stw	zero,4(sp)
 80018a8:	d8800015 	stw	r2,0(sp)
 80018ac:	01c00244 	movi	r7,9
 80018b0:	000d883a 	mov	r6,zero
 80018b4:	000b883a 	mov	r5,zero
 80018b8:	1809883a 	mov	r4,r3
 80018bc:	80026740 	call	8002674 <XferCtrlReq>
 80018c0:	e0bffc05 	stb	r2,-16(fp)
						if (rcode) {   //error handling
 80018c4:	e0bffc03 	ldbu	r2,-16(fp)
 80018c8:	10000226 	beq	r2,zero,80018d4 <HIDMProbe+0x364>
							return (FALSE);
 80018cc:	0005883a 	mov	r2,zero
 80018d0:	00002406 	br	8001964 <HIDMProbe+0x3f4>
						}
						rcode = XferSetProto(addr, 0, hid_device.interface,
 80018d4:	e0fffe03 	ldbu	r3,-8(fp)
 80018d8:	d0a6fc43 	ldbu	r2,-25615(gp)
 80018dc:	10803fcc 	andi	r2,r2,255
 80018e0:	d8000415 	stw	zero,16(sp)
 80018e4:	d8000315 	stw	zero,12(sp)
 80018e8:	d8800215 	stw	r2,8(sp)
 80018ec:	d8000115 	stw	zero,4(sp)
 80018f0:	d8000015 	stw	zero,0(sp)
 80018f4:	01c002c4 	movi	r7,11
 80018f8:	01800844 	movi	r6,33
 80018fc:	000b883a 	mov	r5,zero
 8001900:	1809883a 	mov	r4,r3
 8001904:	80026740 	call	8002674 <XferCtrlReq>
 8001908:	e0bffc05 	stb	r2,-16(fp)
								BOOT_PROTOCOL);
						if (rcode) {   //error handling
 800190c:	e0bffc03 	ldbu	r2,-16(fp)
 8001910:	10000226 	beq	r2,zero,800191c <HIDMProbe+0x3ac>
							return (FALSE);
 8001914:	0005883a 	mov	r2,zero
 8001918:	00001206 	br	8001964 <HIDMProbe+0x3f4>
						} else {
							return (TRUE);
 800191c:	00800044 	movi	r2,1
 8001920:	00001006 	br	8001964 <HIDMProbe+0x3f4>
				hid_device.interface =
						data_ptr->descr.interface.bInterfaceNumber;
				hid_device.addr = addr;
				byte_ptr = byte_ptr + data_ptr->descr.config.bLength;
				data_ptr = (USB_DESCR*) byte_ptr;
				while (byte_ptr < bigbuf + total_length) {
 8001924:	e0fff90b 	ldhu	r3,-28(fp)
 8001928:	008200b4 	movhi	r2,2050
 800192c:	10a98d04 	addi	r2,r2,-22988
 8001930:	1885883a 	add	r2,r3,r2
 8001934:	e0fffb17 	ldw	r3,-20(fp)
 8001938:	18bf9f36 	bltu	r3,r2,80017b8 <__alt_data_end+0xfc0017b8>
			BYTE subclass = data_ptr->descr.interface.bInterfaceSubClass;
			BYTE protocol = data_ptr->descr.interface.bInterfaceProtocol;
			//printf("class %x, subclass %x, protocol %x,\n", class, subclass,
			//		protocol);
			//interface descriptor
			if (class == HID_INTF && subclass == BOOT_INTF_SUBCLASS
 800193c:	00000206 	br	8001948 <HIDMProbe+0x3d8>
						}
					}
				}   //while( byte_ptr....
			}   //if (Class matches
			else { //if class don't match; die on first interface. Not really correct
				return (FALSE);
 8001940:	0005883a 	mov	r2,zero
 8001944:	00000706 	br	8001964 <HIDMProbe+0x3f4>
	//printf("checking configuration value (length: %d): ",
	//		data_ptr->descr.config.wTotalLength);
	//for (int i = 0; i < data_ptr->descr.config.wTotalLength; i++) {
		//printf("%x ", (unsigned char) (bigbuf[i] & 0xff));
	//}
	while (byte_ptr < bigbuf + total_length) {
 8001948:	e0fff90b 	ldhu	r3,-28(fp)
 800194c:	008200b4 	movhi	r2,2050
 8001950:	10a98d04 	addi	r2,r2,-22988
 8001954:	1885883a 	add	r2,r3,r2
 8001958:	e0fffb17 	ldw	r3,-20(fp)
 800195c:	18bf4736 	bltu	r3,r2,800167c <__alt_data_end+0xfc00167c>
			else { //if class don't match; die on first interface. Not really correct
				return (FALSE);
			}
		} //else if( data_ptr->
	} // while( byte_ptr < &buf + total_length
	return (FALSE);
 8001960:	0005883a 	mov	r2,zero
}
 8001964:	e037883a 	mov	sp,fp
 8001968:	dfc00117 	ldw	ra,4(sp)
 800196c:	df000017 	ldw	fp,0(sp)
 8001970:	dec00204 	addi	sp,sp,8
 8001974:	f800283a 	ret

08001978 <HIDKProbe>:
/* HID Keyboard probe. Called from USB state machine.                           */
/* assumes configuration length is less than 256 bytes                          */
/* looks for Class:03, Subclass: 01, Protocol: 01 in interface descriptor       */
/* sets keyboard in boot protocol                                               */
/* assumes single configuration, single endpoint, and interface configuration 0 */
BOOL HIDKProbe(BYTE addr, DWORD flags) {
 8001978:	defff204 	addi	sp,sp,-56
 800197c:	dfc00d15 	stw	ra,52(sp)
 8001980:	df000c15 	stw	fp,48(sp)
 8001984:	df000c04 	addi	fp,sp,48
 8001988:	2005883a 	mov	r2,r4
 800198c:	e17fff15 	stw	r5,-4(fp)
 8001990:	e0bffe05 	stb	r2,-8(fp)
	BYTE tmpbyte;
	BYTE rcode;
	BYTE confvalue;
	WORD total_length;
	USB_DESCR* data_ptr = (USB_DESCR *) &bigbuf;
 8001994:	008200b4 	movhi	r2,2050
 8001998:	10a98d04 	addi	r2,r2,-22988
 800199c:	e0bffa15 	stw	r2,-24(fp)
	BYTE* byte_ptr = bigbuf;
 80019a0:	008200b4 	movhi	r2,2050
 80019a4:	10a98d04 	addi	r2,r2,-22988
 80019a8:	e0bffb15 	stw	r2,-20(fp)
	rcode = XferGetConfDescr(addr, 0, CONF_DESCR_LEN, 0, bigbuf); //get configuration descriptor
 80019ac:	e0fffe03 	ldbu	r3,-8(fp)
 80019b0:	008200b4 	movhi	r2,2050
 80019b4:	10a98d04 	addi	r2,r2,-22988
 80019b8:	d8800415 	stw	r2,16(sp)
 80019bc:	00800244 	movi	r2,9
 80019c0:	d8800315 	stw	r2,12(sp)
 80019c4:	d8000215 	stw	zero,8(sp)
 80019c8:	00800084 	movi	r2,2
 80019cc:	d8800115 	stw	r2,4(sp)
 80019d0:	d8000015 	stw	zero,0(sp)
 80019d4:	01c00184 	movi	r7,6
 80019d8:	01802004 	movi	r6,128
 80019dc:	000b883a 	mov	r5,zero
 80019e0:	1809883a 	mov	r4,r3
 80019e4:	80026740 	call	8002674 <XferCtrlReq>
 80019e8:	e0bffc05 	stb	r2,-16(fp)
	if (rcode) {   //error handling           
 80019ec:	e0bffc03 	ldbu	r2,-16(fp)
 80019f0:	10000226 	beq	r2,zero,80019fc <HIDKProbe+0x84>
		return (FALSE);
 80019f4:	0005883a 	mov	r2,zero
 80019f8:	0000dc06 	br	8001d6c <HIDKProbe+0x3f4>
	}
	if (data_ptr->descr.config.wTotalLength > 256) {
 80019fc:	e0bffa17 	ldw	r2,-24(fp)
 8001a00:	1080008b 	ldhu	r2,2(r2)
 8001a04:	10bfffcc 	andi	r2,r2,65535
 8001a08:	10804070 	cmpltui	r2,r2,257
 8001a0c:	1000031e 	bne	r2,zero,8001a1c <HIDKProbe+0xa4>
		total_length = 256;
 8001a10:	00804004 	movi	r2,256
 8001a14:	e0bff90d 	sth	r2,-28(fp)
 8001a18:	00000306 	br	8001a28 <HIDKProbe+0xb0>
	} else {
		total_length = data_ptr->descr.config.wTotalLength;
 8001a1c:	e0bffa17 	ldw	r2,-24(fp)
 8001a20:	1080008b 	ldhu	r2,2(r2)
 8001a24:	e0bff90d 	sth	r2,-28(fp)
	}
	rcode = XferGetConfDescr(addr, 0, total_length, 0, bigbuf); //get the whole configuration
 8001a28:	e13ffe03 	ldbu	r4,-8(fp)
 8001a2c:	e0fff90b 	ldhu	r3,-28(fp)
 8001a30:	008200b4 	movhi	r2,2050
 8001a34:	10a98d04 	addi	r2,r2,-22988
 8001a38:	d8800415 	stw	r2,16(sp)
 8001a3c:	d8c00315 	stw	r3,12(sp)
 8001a40:	d8000215 	stw	zero,8(sp)
 8001a44:	00800084 	movi	r2,2
 8001a48:	d8800115 	stw	r2,4(sp)
 8001a4c:	d8000015 	stw	zero,0(sp)
 8001a50:	01c00184 	movi	r7,6
 8001a54:	01802004 	movi	r6,128
 8001a58:	000b883a 	mov	r5,zero
 8001a5c:	80026740 	call	8002674 <XferCtrlReq>
 8001a60:	e0bffc05 	stb	r2,-16(fp)
	if (rcode) {   //error handling
 8001a64:	e0bffc03 	ldbu	r2,-16(fp)
 8001a68:	10000226 	beq	r2,zero,8001a74 <HIDKProbe+0xfc>
		return (FALSE);
 8001a6c:	0005883a 	mov	r2,zero
 8001a70:	0000be06 	br	8001d6c <HIDKProbe+0x3f4>
	}
	confvalue = data_ptr->descr.config.bConfigurationValue; //save configuration value to use later
 8001a74:	e0bffa17 	ldw	r2,-24(fp)
 8001a78:	10800143 	ldbu	r2,5(r2)
 8001a7c:	e0bffc45 	stb	r2,-15(fp)
	while (byte_ptr < bigbuf + total_length) {             //parse configuration
 8001a80:	0000b306 	br	8001d50 <HIDKProbe+0x3d8>
		if (data_ptr->descr.config.bDescriptorType != USB_DESCRIPTOR_INTERFACE) { //skip to the next descriptor
 8001a84:	e0bffa17 	ldw	r2,-24(fp)
 8001a88:	10800043 	ldbu	r2,1(r2)
 8001a8c:	10803fcc 	andi	r2,r2,255
 8001a90:	10800120 	cmpeqi	r2,r2,4
 8001a94:	1000091e 	bne	r2,zero,8001abc <HIDKProbe+0x144>
			byte_ptr = byte_ptr + data_ptr->descr.config.bLength;
 8001a98:	e0bffa17 	ldw	r2,-24(fp)
 8001a9c:	10800003 	ldbu	r2,0(r2)
 8001aa0:	10803fcc 	andi	r2,r2,255
 8001aa4:	e0fffb17 	ldw	r3,-20(fp)
 8001aa8:	1885883a 	add	r2,r3,r2
 8001aac:	e0bffb15 	stw	r2,-20(fp)
			data_ptr = (USB_DESCR*) byte_ptr;
 8001ab0:	e0bffb17 	ldw	r2,-20(fp)
 8001ab4:	e0bffa15 	stw	r2,-24(fp)
 8001ab8:	0000a506 	br	8001d50 <HIDKProbe+0x3d8>
		} // if( data_ptr->descr.config.bDescriptorType != USB_DESCRIPTOR_INTERFACE
		else {
			//printf("starting interface parsing at byte location %d\n",
			//		data_ptr->descr.config.bLength);
			BYTE class = data_ptr->descr.interface.bInterfaceClass;
 8001abc:	e0bffa17 	ldw	r2,-24(fp)
 8001ac0:	10800143 	ldbu	r2,5(r2)
 8001ac4:	e0bffc85 	stb	r2,-14(fp)
			BYTE subclass = data_ptr->descr.interface.bInterfaceSubClass;
 8001ac8:	e0bffa17 	ldw	r2,-24(fp)
 8001acc:	10800183 	ldbu	r2,6(r2)
 8001ad0:	e0bffcc5 	stb	r2,-13(fp)
			BYTE protocol = data_ptr->descr.interface.bInterfaceProtocol;
 8001ad4:	e0bffa17 	ldw	r2,-24(fp)
 8001ad8:	108001c3 	ldbu	r2,7(r2)
 8001adc:	e0bffd05 	stb	r2,-12(fp)
			//printf("class %x, subclass %x, protocol %x,\n", class, subclass,
			//		protocol);
			//interface descriptor
			if (class == HID_INTF && subclass == BOOT_INTF_SUBCLASS
 8001ae0:	e0bffc83 	ldbu	r2,-14(fp)
 8001ae4:	108000d8 	cmpnei	r2,r2,3
 8001ae8:	1000971e 	bne	r2,zero,8001d48 <HIDKProbe+0x3d0>
 8001aec:	e0bffcc3 	ldbu	r2,-13(fp)
 8001af0:	10800058 	cmpnei	r2,r2,1
 8001af4:	1000941e 	bne	r2,zero,8001d48 <HIDKProbe+0x3d0>
					&& protocol == HID_PROTOCOL_KEYBOARD) {
 8001af8:	e0bffd03 	ldbu	r2,-12(fp)
 8001afc:	10800058 	cmpnei	r2,r2,1
 8001b00:	1000911e 	bne	r2,zero,8001d48 <HIDKProbe+0x3d0>
				//detected a keyboard
				devtable[addr].devclass = HID_K;             //fill device class
 8001b04:	e0fffe03 	ldbu	r3,-8(fp)
 8001b08:	008200b4 	movhi	r2,2050
 8001b0c:	10a9cd04 	addi	r2,r2,-22732
 8001b10:	180690fa 	slli	r3,r3,3
 8001b14:	10c5883a 	add	r2,r2,r3
 8001b18:	10800104 	addi	r2,r2,4
 8001b1c:	00c00044 	movi	r3,1
 8001b20:	10c00005 	stb	r3,0(r2)
				tmpbyte = devtable[addr].epinfo->MaxPktSize; //save max.packet size
 8001b24:	e0fffe03 	ldbu	r3,-8(fp)
 8001b28:	008200b4 	movhi	r2,2050
 8001b2c:	10a9cd04 	addi	r2,r2,-22732
 8001b30:	180690fa 	slli	r3,r3,3
 8001b34:	10c5883a 	add	r2,r2,r3
 8001b38:	10800017 	ldw	r2,0(r2)
 8001b3c:	1080008b 	ldhu	r2,2(r2)
 8001b40:	e0bffd45 	stb	r2,-11(fp)
				HID_init();                         //initialize data structures
 8001b44:	8001d800 	call	8001d80 <HID_init>
				devtable[addr].epinfo = hid_ep; //switch endpoint information structure
 8001b48:	e0fffe03 	ldbu	r3,-8(fp)
 8001b4c:	008200b4 	movhi	r2,2050
 8001b50:	10a9cd04 	addi	r2,r2,-22732
 8001b54:	180690fa 	slli	r3,r3,3
 8001b58:	10c7883a 	add	r3,r2,r3
 8001b5c:	008200b4 	movhi	r2,2050
 8001b60:	10a97904 	addi	r2,r2,-23068
 8001b64:	18800015 	stw	r2,0(r3)
				devtable[addr].epinfo[0].MaxPktSize = tmpbyte; //fill in max.packet size
 8001b68:	e0fffe03 	ldbu	r3,-8(fp)
 8001b6c:	008200b4 	movhi	r2,2050
 8001b70:	10a9cd04 	addi	r2,r2,-22732
 8001b74:	180690fa 	slli	r3,r3,3
 8001b78:	10c5883a 	add	r2,r2,r3
 8001b7c:	10800017 	ldw	r2,0(r2)
 8001b80:	e0fffd43 	ldbu	r3,-11(fp)
 8001b84:	10c0008d 	sth	r3,2(r2)
				hid_device.interface =
						data_ptr->descr.interface.bInterfaceNumber; //fill in interface number to be used in HID requests
 8001b88:	e0bffa17 	ldw	r2,-24(fp)
 8001b8c:	10800083 	ldbu	r2,2(r2)
				devtable[addr].devclass = HID_K;             //fill device class
				tmpbyte = devtable[addr].epinfo->MaxPktSize; //save max.packet size
				HID_init();                         //initialize data structures
				devtable[addr].epinfo = hid_ep; //switch endpoint information structure
				devtable[addr].epinfo[0].MaxPktSize = tmpbyte; //fill in max.packet size
				hid_device.interface =
 8001b90:	d0a6fc45 	stb	r2,-25615(gp)
						data_ptr->descr.interface.bInterfaceNumber; //fill in interface number to be used in HID requests
				hid_device.addr = addr;                        //fill in address
 8001b94:	e0bffe03 	ldbu	r2,-8(fp)
 8001b98:	d0a6fc05 	stb	r2,-25616(gp)
				byte_ptr = byte_ptr + data_ptr->descr.config.bLength; //skip to the next descriptor
 8001b9c:	e0bffa17 	ldw	r2,-24(fp)
 8001ba0:	10800003 	ldbu	r2,0(r2)
 8001ba4:	10803fcc 	andi	r2,r2,255
 8001ba8:	e0fffb17 	ldw	r3,-20(fp)
 8001bac:	1885883a 	add	r2,r3,r2
 8001bb0:	e0bffb15 	stw	r2,-20(fp)
				data_ptr = (USB_DESCR*) byte_ptr;
 8001bb4:	e0bffb17 	ldw	r2,-20(fp)
 8001bb8:	e0bffa15 	stw	r2,-24(fp)
				while (byte_ptr < bigbuf + total_length) {
 8001bbc:	00005b06 	br	8001d2c <HIDKProbe+0x3b4>
					if (data_ptr->descr.config.bDescriptorType
 8001bc0:	e0bffa17 	ldw	r2,-24(fp)
 8001bc4:	10800043 	ldbu	r2,1(r2)
 8001bc8:	10803fcc 	andi	r2,r2,255
 8001bcc:	10800160 	cmpeqi	r2,r2,5
 8001bd0:	1000091e 	bne	r2,zero,8001bf8 <HIDKProbe+0x280>
							!= USB_DESCRIPTOR_ENDPOINT) { //skip to endpoint descriptor
						byte_ptr = byte_ptr + data_ptr->descr.config.bLength;
 8001bd4:	e0bffa17 	ldw	r2,-24(fp)
 8001bd8:	10800003 	ldbu	r2,0(r2)
 8001bdc:	10803fcc 	andi	r2,r2,255
 8001be0:	e0fffb17 	ldw	r3,-20(fp)
 8001be4:	1885883a 	add	r2,r3,r2
 8001be8:	e0bffb15 	stw	r2,-20(fp)
						data_ptr = (USB_DESCR*) byte_ptr;
 8001bec:	e0bffb17 	ldw	r2,-20(fp)
 8001bf0:	e0bffa15 	stw	r2,-24(fp)
 8001bf4:	00004d06 	br	8001d2c <HIDKProbe+0x3b4>
					} else {
						/* fill endpoint information structure */
						devtable[addr].epinfo[1].epAddr =
 8001bf8:	e0fffe03 	ldbu	r3,-8(fp)
 8001bfc:	008200b4 	movhi	r2,2050
 8001c00:	10a9cd04 	addi	r2,r2,-22732
 8001c04:	180690fa 	slli	r3,r3,3
 8001c08:	10c5883a 	add	r2,r2,r3
 8001c0c:	10800017 	ldw	r2,0(r2)
 8001c10:	10800204 	addi	r2,r2,8
								data_ptr->descr.endpoint.bEndpointAddress;
 8001c14:	e0fffa17 	ldw	r3,-24(fp)
 8001c18:	18c00083 	ldbu	r3,2(r3)
							!= USB_DESCRIPTOR_ENDPOINT) { //skip to endpoint descriptor
						byte_ptr = byte_ptr + data_ptr->descr.config.bLength;
						data_ptr = (USB_DESCR*) byte_ptr;
					} else {
						/* fill endpoint information structure */
						devtable[addr].epinfo[1].epAddr =
 8001c1c:	10c00005 	stb	r3,0(r2)
								data_ptr->descr.endpoint.bEndpointAddress;
						devtable[addr].epinfo[1].Attr =
 8001c20:	e0fffe03 	ldbu	r3,-8(fp)
 8001c24:	008200b4 	movhi	r2,2050
 8001c28:	10a9cd04 	addi	r2,r2,-22732
 8001c2c:	180690fa 	slli	r3,r3,3
 8001c30:	10c5883a 	add	r2,r2,r3
 8001c34:	10800017 	ldw	r2,0(r2)
 8001c38:	10800204 	addi	r2,r2,8
								data_ptr->descr.endpoint.bmAttributes;
 8001c3c:	e0fffa17 	ldw	r3,-24(fp)
 8001c40:	18c000c3 	ldbu	r3,3(r3)
						data_ptr = (USB_DESCR*) byte_ptr;
					} else {
						/* fill endpoint information structure */
						devtable[addr].epinfo[1].epAddr =
								data_ptr->descr.endpoint.bEndpointAddress;
						devtable[addr].epinfo[1].Attr =
 8001c44:	10c00045 	stb	r3,1(r2)
								data_ptr->descr.endpoint.bmAttributes;
						devtable[addr].epinfo[1].MaxPktSize =
 8001c48:	e0fffe03 	ldbu	r3,-8(fp)
 8001c4c:	008200b4 	movhi	r2,2050
 8001c50:	10a9cd04 	addi	r2,r2,-22732
 8001c54:	180690fa 	slli	r3,r3,3
 8001c58:	10c5883a 	add	r2,r2,r3
 8001c5c:	10800017 	ldw	r2,0(r2)
 8001c60:	10800204 	addi	r2,r2,8
								data_ptr->descr.endpoint.wMaxPacketSize;
 8001c64:	e0fffa17 	ldw	r3,-24(fp)
 8001c68:	18c0010b 	ldhu	r3,4(r3)
						/* fill endpoint information structure */
						devtable[addr].epinfo[1].epAddr =
								data_ptr->descr.endpoint.bEndpointAddress;
						devtable[addr].epinfo[1].Attr =
								data_ptr->descr.endpoint.bmAttributes;
						devtable[addr].epinfo[1].MaxPktSize =
 8001c6c:	10c0008d 	sth	r3,2(r2)
								data_ptr->descr.endpoint.wMaxPacketSize;
						devtable[addr].epinfo[1].Interval =
 8001c70:	e0fffe03 	ldbu	r3,-8(fp)
 8001c74:	008200b4 	movhi	r2,2050
 8001c78:	10a9cd04 	addi	r2,r2,-22732
 8001c7c:	180690fa 	slli	r3,r3,3
 8001c80:	10c5883a 	add	r2,r2,r3
 8001c84:	10800017 	ldw	r2,0(r2)
 8001c88:	10800204 	addi	r2,r2,8
								data_ptr->descr.endpoint.bInterval;
 8001c8c:	e0fffa17 	ldw	r3,-24(fp)
 8001c90:	18c00183 	ldbu	r3,6(r3)
								data_ptr->descr.endpoint.bEndpointAddress;
						devtable[addr].epinfo[1].Attr =
								data_ptr->descr.endpoint.bmAttributes;
						devtable[addr].epinfo[1].MaxPktSize =
								data_ptr->descr.endpoint.wMaxPacketSize;
						devtable[addr].epinfo[1].Interval =
 8001c94:	10c00105 	stb	r3,4(r2)
								data_ptr->descr.endpoint.bInterval;
						/* configure device */
						rcode = XferSetConf(addr, 0, confvalue); //set configuration
 8001c98:	e0fffe03 	ldbu	r3,-8(fp)
 8001c9c:	e0bffc43 	ldbu	r2,-15(fp)
 8001ca0:	d8000415 	stw	zero,16(sp)
 8001ca4:	d8000315 	stw	zero,12(sp)
 8001ca8:	d8000215 	stw	zero,8(sp)
 8001cac:	d8000115 	stw	zero,4(sp)
 8001cb0:	d8800015 	stw	r2,0(sp)
 8001cb4:	01c00244 	movi	r7,9
 8001cb8:	000d883a 	mov	r6,zero
 8001cbc:	000b883a 	mov	r5,zero
 8001cc0:	1809883a 	mov	r4,r3
 8001cc4:	80026740 	call	8002674 <XferCtrlReq>
 8001cc8:	e0bffc05 	stb	r2,-16(fp)
						if (rcode) {   //error handling
 8001ccc:	e0bffc03 	ldbu	r2,-16(fp)
 8001cd0:	10000226 	beq	r2,zero,8001cdc <HIDKProbe+0x364>
							return (FALSE);
 8001cd4:	0005883a 	mov	r2,zero
 8001cd8:	00002406 	br	8001d6c <HIDKProbe+0x3f4>
						}
						rcode = XferSetProto(addr, 0, hid_device.interface,
 8001cdc:	e0fffe03 	ldbu	r3,-8(fp)
 8001ce0:	d0a6fc43 	ldbu	r2,-25615(gp)
 8001ce4:	10803fcc 	andi	r2,r2,255
 8001ce8:	d8000415 	stw	zero,16(sp)
 8001cec:	d8000315 	stw	zero,12(sp)
 8001cf0:	d8800215 	stw	r2,8(sp)
 8001cf4:	d8000115 	stw	zero,4(sp)
 8001cf8:	d8000015 	stw	zero,0(sp)
 8001cfc:	01c002c4 	movi	r7,11
 8001d00:	01800844 	movi	r6,33
 8001d04:	000b883a 	mov	r5,zero
 8001d08:	1809883a 	mov	r4,r3
 8001d0c:	80026740 	call	8002674 <XferCtrlReq>
 8001d10:	e0bffc05 	stb	r2,-16(fp)
								BOOT_PROTOCOL);
						if (rcode) {   //error handling
 8001d14:	e0bffc03 	ldbu	r2,-16(fp)
 8001d18:	10000226 	beq	r2,zero,8001d24 <HIDKProbe+0x3ac>
							return (FALSE);
 8001d1c:	0005883a 	mov	r2,zero
 8001d20:	00001206 	br	8001d6c <HIDKProbe+0x3f4>
						} else {
							return (TRUE);
 8001d24:	00800044 	movi	r2,1
 8001d28:	00001006 	br	8001d6c <HIDKProbe+0x3f4>
				hid_device.interface =
						data_ptr->descr.interface.bInterfaceNumber; //fill in interface number to be used in HID requests
				hid_device.addr = addr;                        //fill in address
				byte_ptr = byte_ptr + data_ptr->descr.config.bLength; //skip to the next descriptor
				data_ptr = (USB_DESCR*) byte_ptr;
				while (byte_ptr < bigbuf + total_length) {
 8001d2c:	e0fff90b 	ldhu	r3,-28(fp)
 8001d30:	008200b4 	movhi	r2,2050
 8001d34:	10a98d04 	addi	r2,r2,-22988
 8001d38:	1885883a 	add	r2,r3,r2
 8001d3c:	e0fffb17 	ldw	r3,-20(fp)
 8001d40:	18bf9f36 	bltu	r3,r2,8001bc0 <__alt_data_end+0xfc001bc0>
			BYTE subclass = data_ptr->descr.interface.bInterfaceSubClass;
			BYTE protocol = data_ptr->descr.interface.bInterfaceProtocol;
			//printf("class %x, subclass %x, protocol %x,\n", class, subclass,
			//		protocol);
			//interface descriptor
			if (class == HID_INTF && subclass == BOOT_INTF_SUBCLASS
 8001d44:	00000206 	br	8001d50 <HIDKProbe+0x3d8>
						}
					}
				}   //while( byte_ptr....
			}   //if (Class matches
			else { //if class don't match; stop processing after first interface. Not really correct
				return (FALSE);
 8001d48:	0005883a 	mov	r2,zero
 8001d4c:	00000706 	br	8001d6c <HIDKProbe+0x3f4>
	rcode = XferGetConfDescr(addr, 0, total_length, 0, bigbuf); //get the whole configuration
	if (rcode) {   //error handling
		return (FALSE);
	}
	confvalue = data_ptr->descr.config.bConfigurationValue; //save configuration value to use later
	while (byte_ptr < bigbuf + total_length) {             //parse configuration
 8001d50:	e0fff90b 	ldhu	r3,-28(fp)
 8001d54:	008200b4 	movhi	r2,2050
 8001d58:	10a98d04 	addi	r2,r2,-22988
 8001d5c:	1885883a 	add	r2,r3,r2
 8001d60:	e0fffb17 	ldw	r3,-20(fp)
 8001d64:	18bf4736 	bltu	r3,r2,8001a84 <__alt_data_end+0xfc001a84>
			else { //if class don't match; stop processing after first interface. Not really correct
				return (FALSE);
			}
		} //else if( data_ptr->
	} // while( byte_ptr < &buf + total_length
	return (FALSE);
 8001d68:	0005883a 	mov	r2,zero
}
 8001d6c:	e037883a 	mov	sp,fp
 8001d70:	dfc00117 	ldw	ra,4(sp)
 8001d74:	df000017 	ldw	fp,0(sp)
 8001d78:	dec00204 	addi	sp,sp,8
 8001d7c:	f800283a 	ret

08001d80 <HID_init>:
/* HID data structures initialization */
void HID_init(void) {
 8001d80:	deffff04 	addi	sp,sp,-4
 8001d84:	df000015 	stw	fp,0(sp)
 8001d88:	d839883a 	mov	fp,sp
	hid_ep[1].sndToggle = bmSNDTOG0;
 8001d8c:	008200b4 	movhi	r2,2050
 8001d90:	10a97904 	addi	r2,r2,-23068
 8001d94:	00c01004 	movi	r3,64
 8001d98:	10c00345 	stb	r3,13(r2)
	hid_ep[1].rcvToggle = bmRCVTOG0;
 8001d9c:	008200b4 	movhi	r2,2050
 8001da0:	10a97904 	addi	r2,r2,-23068
 8001da4:	00c00404 	movi	r3,16
 8001da8:	10c00385 	stb	r3,14(r2)
}
 8001dac:	0001883a 	nop
 8001db0:	e037883a 	mov	sp,fp
 8001db4:	df000017 	ldw	fp,0(sp)
 8001db8:	dec00104 	addi	sp,sp,4
 8001dbc:	f800283a 	ret

08001dc0 <mousePoll>:
/* poll boot mouse */
BYTE mousePoll(BOOT_MOUSE_REPORT* buf) {
 8001dc0:	defffb04 	addi	sp,sp,-20
 8001dc4:	dfc00415 	stw	ra,16(sp)
 8001dc8:	df000315 	stw	fp,12(sp)
 8001dcc:	df000304 	addi	fp,sp,12
 8001dd0:	e13fff15 	stw	r4,-4(fp)
	BYTE rcode;
	MAXreg_wr( rPERADDR, hid_device.addr);    //set peripheral address
 8001dd4:	d0a6fc03 	ldbu	r2,-25616(gp)
 8001dd8:	10803fcc 	andi	r2,r2,255
 8001ddc:	100b883a 	mov	r5,r2
 8001de0:	01003804 	movi	r4,224
 8001de4:	8001fbc0 	call	8001fbc <MAXreg_wr>
	rcode = XferInTransfer(hid_device.addr, 1, 8, (BYTE*) buf,
 8001de8:	d0a6fc03 	ldbu	r2,-25616(gp)
 8001dec:	11003fcc 	andi	r4,r2,255
			devtable[hid_device.addr].epinfo[1].MaxPktSize);
 8001df0:	d0a6fc03 	ldbu	r2,-25616(gp)
 8001df4:	10c03fcc 	andi	r3,r2,255
 8001df8:	008200b4 	movhi	r2,2050
 8001dfc:	10a9cd04 	addi	r2,r2,-22732
 8001e00:	180690fa 	slli	r3,r3,3
 8001e04:	10c5883a 	add	r2,r2,r3
 8001e08:	10800017 	ldw	r2,0(r2)
 8001e0c:	10800204 	addi	r2,r2,8
 8001e10:	1080008b 	ldhu	r2,2(r2)
}
/* poll boot mouse */
BYTE mousePoll(BOOT_MOUSE_REPORT* buf) {
	BYTE rcode;
	MAXreg_wr( rPERADDR, hid_device.addr);    //set peripheral address
	rcode = XferInTransfer(hid_device.addr, 1, 8, (BYTE*) buf,
 8001e14:	10803fcc 	andi	r2,r2,255
 8001e18:	d8800015 	stw	r2,0(sp)
 8001e1c:	e1ffff17 	ldw	r7,-4(fp)
 8001e20:	01800204 	movi	r6,8
 8001e24:	01400044 	movi	r5,1
 8001e28:	8002a980 	call	8002a98 <XferInTransfer>
 8001e2c:	e0bffe05 	stb	r2,-8(fp)
			devtable[hid_device.addr].epinfo[1].MaxPktSize);
	return (rcode);
 8001e30:	e0bffe03 	ldbu	r2,-8(fp)
}
 8001e34:	e037883a 	mov	sp,fp
 8001e38:	dfc00117 	ldw	ra,4(sp)
 8001e3c:	df000017 	ldw	fp,0(sp)
 8001e40:	dec00204 	addi	sp,sp,8
 8001e44:	f800283a 	ret

08001e48 <kbdPoll>:
/* poll boot keyboard */
BYTE kbdPoll(BOOT_KBD_REPORT* buf) {
 8001e48:	defffa04 	addi	sp,sp,-24
 8001e4c:	dfc00515 	stw	ra,20(sp)
 8001e50:	df000415 	stw	fp,16(sp)
 8001e54:	df000404 	addi	fp,sp,16
 8001e58:	e13fff15 	stw	r4,-4(fp)
	BYTE rcode;
	MAXreg_wr( rPERADDR, hid_device.addr);    //set peripheral address
 8001e5c:	d0a6fc03 	ldbu	r2,-25616(gp)
 8001e60:	10803fcc 	andi	r2,r2,255
 8001e64:	100b883a 	mov	r5,r2
 8001e68:	01003804 	movi	r4,224
 8001e6c:	8001fbc0 	call	8001fbc <MAXreg_wr>
	for (int i = 0; i < 50; i++) {/* do nothing, artificial delay*/}
 8001e70:	e03ffd15 	stw	zero,-12(fp)
 8001e74:	00000306 	br	8001e84 <kbdPoll+0x3c>
 8001e78:	e0bffd17 	ldw	r2,-12(fp)
 8001e7c:	10800044 	addi	r2,r2,1
 8001e80:	e0bffd15 	stw	r2,-12(fp)
 8001e84:	e0bffd17 	ldw	r2,-12(fp)
 8001e88:	10800c90 	cmplti	r2,r2,50
 8001e8c:	103ffa1e 	bne	r2,zero,8001e78 <__alt_data_end+0xfc001e78>
	rcode = XferInTransfer(hid_device.addr, 1, 8, (BYTE*) buf,
 8001e90:	d0a6fc03 	ldbu	r2,-25616(gp)
 8001e94:	11003fcc 	andi	r4,r2,255
			devtable[hid_device.addr].epinfo[1].MaxPktSize);
 8001e98:	d0a6fc03 	ldbu	r2,-25616(gp)
 8001e9c:	10c03fcc 	andi	r3,r2,255
 8001ea0:	008200b4 	movhi	r2,2050
 8001ea4:	10a9cd04 	addi	r2,r2,-22732
 8001ea8:	180690fa 	slli	r3,r3,3
 8001eac:	10c5883a 	add	r2,r2,r3
 8001eb0:	10800017 	ldw	r2,0(r2)
 8001eb4:	10800204 	addi	r2,r2,8
 8001eb8:	1080008b 	ldhu	r2,2(r2)
/* poll boot keyboard */
BYTE kbdPoll(BOOT_KBD_REPORT* buf) {
	BYTE rcode;
	MAXreg_wr( rPERADDR, hid_device.addr);    //set peripheral address
	for (int i = 0; i < 50; i++) {/* do nothing, artificial delay*/}
	rcode = XferInTransfer(hid_device.addr, 1, 8, (BYTE*) buf,
 8001ebc:	10803fcc 	andi	r2,r2,255
 8001ec0:	d8800015 	stw	r2,0(sp)
 8001ec4:	e1ffff17 	ldw	r7,-4(fp)
 8001ec8:	01800204 	movi	r6,8
 8001ecc:	01400044 	movi	r5,1
 8001ed0:	8002a980 	call	8002a98 <XferInTransfer>
 8001ed4:	e0bffe05 	stb	r2,-8(fp)
			devtable[hid_device.addr].epinfo[1].MaxPktSize);
	return (rcode);
 8001ed8:	e0bffe03 	ldbu	r2,-8(fp)
}
 8001edc:	e037883a 	mov	sp,fp
 8001ee0:	dfc00117 	ldw	ra,4(sp)
 8001ee4:	df000017 	ldw	fp,0(sp)
 8001ee8:	dec00204 	addi	sp,sp,8
 8001eec:	f800283a 	ret

08001ef0 <HIDMEventHandler>:
BOOL HIDMEventHandler(BYTE address, BYTE event, void *data, DWORD size) {
 8001ef0:	defffb04 	addi	sp,sp,-20
 8001ef4:	df000415 	stw	fp,16(sp)
 8001ef8:	df000404 	addi	fp,sp,16
 8001efc:	2007883a 	mov	r3,r4
 8001f00:	2805883a 	mov	r2,r5
 8001f04:	e1bffe15 	stw	r6,-8(fp)
 8001f08:	e1ffff15 	stw	r7,-4(fp)
 8001f0c:	e0fffc05 	stb	r3,-16(fp)
 8001f10:	e0bffd05 	stb	r2,-12(fp)
	return (FALSE);
 8001f14:	0005883a 	mov	r2,zero
}
 8001f18:	e037883a 	mov	sp,fp
 8001f1c:	df000017 	ldw	fp,0(sp)
 8001f20:	dec00104 	addi	sp,sp,4
 8001f24:	f800283a 	ret

08001f28 <HIDKEventHandler>:
BOOL HIDKEventHandler(BYTE address, BYTE event, void *data, DWORD size) {
 8001f28:	defffb04 	addi	sp,sp,-20
 8001f2c:	df000415 	stw	fp,16(sp)
 8001f30:	df000404 	addi	fp,sp,16
 8001f34:	2007883a 	mov	r3,r4
 8001f38:	2805883a 	mov	r2,r5
 8001f3c:	e1bffe15 	stw	r6,-8(fp)
 8001f40:	e1ffff15 	stw	r7,-4(fp)
 8001f44:	e0fffc05 	stb	r3,-16(fp)
 8001f48:	e0bffd05 	stb	r2,-12(fp)
	return (FALSE);
 8001f4c:	0005883a 	mov	r2,zero
}
 8001f50:	e037883a 	mov	sp,fp
 8001f54:	df000017 	ldw	fp,0(sp)
 8001f58:	dec00104 	addi	sp,sp,4
 8001f5c:	f800283a 	ret

08001f60 <SPI_init>:
//variables and data structures
//External variables
extern BYTE usb_task_state;

/* Functions    */
void SPI_init(BYTE sync_mode, BYTE bus_mode, BYTE smp_phase) {
 8001f60:	defffc04 	addi	sp,sp,-16
 8001f64:	df000315 	stw	fp,12(sp)
 8001f68:	df000304 	addi	fp,sp,12
 8001f6c:	2807883a 	mov	r3,r5
 8001f70:	3005883a 	mov	r2,r6
 8001f74:	e13ffd05 	stb	r4,-12(fp)
 8001f78:	e0fffe05 	stb	r3,-8(fp)
 8001f7c:	e0bfff05 	stb	r2,-4(fp)
	//Don't need to initialize SPI port, already ready to go with BSP
}
 8001f80:	0001883a 	nop
 8001f84:	e037883a 	mov	sp,fp
 8001f88:	df000017 	ldw	fp,0(sp)
 8001f8c:	dec00104 	addi	sp,sp,4
 8001f90:	f800283a 	ret

08001f94 <SPI_wr>:

//writes single byte to MAX3421E via SPI, simultaneously reads status register and returns it
BYTE SPI_wr(BYTE data) {
 8001f94:	defffe04 	addi	sp,sp,-8
 8001f98:	df000115 	stw	fp,4(sp)
 8001f9c:	df000104 	addi	fp,sp,4
 8001fa0:	2005883a 	mov	r2,r4
 8001fa4:	e0bfff05 	stb	r2,-4(fp)
	//This function is never used by the code, so you do not need to fill it in
}
 8001fa8:	0001883a 	nop
 8001fac:	e037883a 	mov	sp,fp
 8001fb0:	df000017 	ldw	fp,0(sp)
 8001fb4:	dec00104 	addi	sp,sp,4
 8001fb8:	f800283a 	ret

08001fbc <MAXreg_wr>:
//writes register to MAX3421E via SPI
void MAXreg_wr(BYTE reg, BYTE val) {
 8001fbc:	defff704 	addi	sp,sp,-36
 8001fc0:	dfc00815 	stw	ra,32(sp)
 8001fc4:	df000715 	stw	fp,28(sp)
 8001fc8:	df000704 	addi	fp,sp,28
 8001fcc:	2007883a 	mov	r3,r4
 8001fd0:	2805883a 	mov	r2,r5
 8001fd4:	e0fffe05 	stb	r3,-8(fp)
 8001fd8:	e0bfff05 	stb	r2,-4(fp)
	//pseudo-code:
	alt_u8 wdata[2];
	alt_u8 rdata[1];
	int return_code;
	//write reg + 2, then val, via SPI
	wdata[0] = reg + 2;
 8001fdc:	e0bffe03 	ldbu	r2,-8(fp)
 8001fe0:	10800084 	addi	r2,r2,2
 8001fe4:	e0bffd05 	stb	r2,-12(fp)
	wdata[1] = val;
 8001fe8:	e0bfff03 	ldbu	r2,-4(fp)
 8001fec:	e0bffd45 	stb	r2,-11(fp)
	return_code = alt_avalon_spi_command(SPI0_BASE, 0, 2, wdata, 0, rdata, 0);
 8001ff0:	e0fffd04 	addi	r3,fp,-12
 8001ff4:	d8000215 	stw	zero,8(sp)
 8001ff8:	e0bffd84 	addi	r2,fp,-10
 8001ffc:	d8800115 	stw	r2,4(sp)
 8002000:	d8000015 	stw	zero,0(sp)
 8002004:	180f883a 	mov	r7,r3
 8002008:	01800084 	movi	r6,2
 800200c:	000b883a 	mov	r5,zero
 8002010:	01003004 	movi	r4,192
 8002014:	80151700 	call	8015170 <alt_avalon_spi_command>
 8002018:	e0bffc15 	stw	r2,-16(fp)
	//read return code from SPI peripheral (see Intel documentation)
	//if return code < 0 print an error
	if (return_code < 0) {
 800201c:	e0bffc17 	ldw	r2,-16(fp)
 8002020:	1000030e 	bge	r2,zero,8002030 <MAXreg_wr+0x74>
		printf("In MAXreg_wr(), error writing register to USB host via SPI\n");
 8002024:	01020074 	movhi	r4,2049
 8002028:	211a8604 	addi	r4,r4,27160
 800202c:	80094b80 	call	80094b8 <puts>
	}
}
 8002030:	0001883a 	nop
 8002034:	e037883a 	mov	sp,fp
 8002038:	dfc00117 	ldw	ra,4(sp)
 800203c:	df000017 	ldw	fp,0(sp)
 8002040:	dec00204 	addi	sp,sp,8
 8002044:	f800283a 	ret

08002048 <MAXbytes_wr>:
//multiple-byte write
//returns a pointer to a memory position after last written
BYTE* MAXbytes_wr(BYTE reg, BYTE nbytes, BYTE* data) {
 8002048:	defff604 	addi	sp,sp,-40
 800204c:	dfc00915 	stw	ra,36(sp)
 8002050:	df000815 	stw	fp,32(sp)
 8002054:	df000804 	addi	fp,sp,32
 8002058:	2007883a 	mov	r3,r4
 800205c:	2805883a 	mov	r2,r5
 8002060:	e1bfff15 	stw	r6,-4(fp)
 8002064:	e0fffd05 	stb	r3,-12(fp)
 8002068:	e0bffe05 	stb	r2,-8(fp)
	//pseudo-code:
	alt_u8 wdata[2];
	alt_u8 rdata[1];
	int return_code;
	//write reg + 2 via SPI
	wdata[0] = reg + 2;
 800206c:	e0bffd03 	ldbu	r2,-12(fp)
 8002070:	10800084 	addi	r2,r2,2
 8002074:	e0bffc05 	stb	r2,-16(fp)
	//write data[n] via SPI, where n goes from 0 to nbytes-1
	while (nbytes) {
 8002078:	00001406 	br	80020cc <MAXbytes_wr+0x84>
		wdata[1] = *data;
 800207c:	e0bfff17 	ldw	r2,-4(fp)
 8002080:	10800003 	ldbu	r2,0(r2)
 8002084:	e0bffc45 	stb	r2,-15(fp)
		return_code = alt_avalon_spi_command(SPI0_BASE, 0, 2, wdata, 0, rdata, 0);
 8002088:	e0fffc04 	addi	r3,fp,-16
 800208c:	d8000215 	stw	zero,8(sp)
 8002090:	e0bffc84 	addi	r2,fp,-14
 8002094:	d8800115 	stw	r2,4(sp)
 8002098:	d8000015 	stw	zero,0(sp)
 800209c:	180f883a 	mov	r7,r3
 80020a0:	01800084 	movi	r6,2
 80020a4:	000b883a 	mov	r5,zero
 80020a8:	01003004 	movi	r4,192
 80020ac:	80151700 	call	8015170 <alt_avalon_spi_command>
 80020b0:	e0bffb15 	stw	r2,-20(fp)
		data++;
 80020b4:	e0bfff17 	ldw	r2,-4(fp)
 80020b8:	10800044 	addi	r2,r2,1
 80020bc:	e0bfff15 	stw	r2,-4(fp)
		nbytes--;
 80020c0:	e0bffe03 	ldbu	r2,-8(fp)
 80020c4:	10bfffc4 	addi	r2,r2,-1
 80020c8:	e0bffe05 	stb	r2,-8(fp)
	alt_u8 rdata[1];
	int return_code;
	//write reg + 2 via SPI
	wdata[0] = reg + 2;
	//write data[n] via SPI, where n goes from 0 to nbytes-1
	while (nbytes) {
 80020cc:	e0bffe03 	ldbu	r2,-8(fp)
 80020d0:	103fea1e 	bne	r2,zero,800207c <__alt_data_end+0xfc00207c>
		data++;
		nbytes--;
	}
	//read return code from SPI peripheral (see Intel documentation)
	//if return code < 0 print an error
	if (return_code < 0) {
 80020d4:	e0bffb17 	ldw	r2,-20(fp)
 80020d8:	1000030e 	bge	r2,zero,80020e8 <MAXbytes_wr+0xa0>
		printf("In MAXbytes_wr(), error writing register to USB host via SPI\n");
 80020dc:	01020074 	movhi	r4,2049
 80020e0:	211a9504 	addi	r4,r4,27220
 80020e4:	80094b80 	call	80094b8 <puts>
	}
	//return (data + nbytes);
	return (data);
 80020e8:	e0bfff17 	ldw	r2,-4(fp)
}
 80020ec:	e037883a 	mov	sp,fp
 80020f0:	dfc00117 	ldw	ra,4(sp)
 80020f4:	df000017 	ldw	fp,0(sp)
 80020f8:	dec00204 	addi	sp,sp,8
 80020fc:	f800283a 	ret

08002100 <MAXreg_rd>:

//reads register from MAX3421E via SPI
BYTE MAXreg_rd(BYTE reg) {
 8002100:	defff804 	addi	sp,sp,-32
 8002104:	dfc00715 	stw	ra,28(sp)
 8002108:	df000615 	stw	fp,24(sp)
 800210c:	df000604 	addi	fp,sp,24
 8002110:	2005883a 	mov	r2,r4
 8002114:	e0bfff05 	stb	r2,-4(fp)
	//pseudo-code:
	alt_u8 wdata[1];
	alt_u8 rdata[1];
	int return_code;
	//write reg via SPI and read val
	wdata[0] = reg;
 8002118:	e0bfff03 	ldbu	r2,-4(fp)
 800211c:	e0bffe45 	stb	r2,-7(fp)
	return_code = alt_avalon_spi_command(SPI0_BASE, 0, 1, wdata, 1, rdata, 0);
 8002120:	e0fffe44 	addi	r3,fp,-7
 8002124:	d8000215 	stw	zero,8(sp)
 8002128:	e0bffe84 	addi	r2,fp,-6
 800212c:	d8800115 	stw	r2,4(sp)
 8002130:	00800044 	movi	r2,1
 8002134:	d8800015 	stw	r2,0(sp)
 8002138:	180f883a 	mov	r7,r3
 800213c:	01800044 	movi	r6,1
 8002140:	000b883a 	mov	r5,zero
 8002144:	01003004 	movi	r4,192
 8002148:	80151700 	call	8015170 <alt_avalon_spi_command>
 800214c:	e0bffd15 	stw	r2,-12(fp)
	//read return code from SPI peripheral (see Intel documentation)
	//if return code < 0 print an error
	if (return_code < 0) {
 8002150:	e0bffd17 	ldw	r2,-12(fp)
 8002154:	1000030e 	bge	r2,zero,8002164 <MAXreg_rd+0x64>
		printf("In MAXreg_rd(), error writing register to USB host via SPI\n");
 8002158:	01020074 	movhi	r4,2049
 800215c:	211aa504 	addi	r4,r4,27284
 8002160:	80094b80 	call	80094b8 <puts>
	}
	//return val
	BYTE val = rdata[0];
 8002164:	e0bffe83 	ldbu	r2,-6(fp)
 8002168:	e0bffe05 	stb	r2,-8(fp)
	return (val);
 800216c:	e0bffe03 	ldbu	r2,-8(fp)
}
 8002170:	e037883a 	mov	sp,fp
 8002174:	dfc00117 	ldw	ra,4(sp)
 8002178:	df000017 	ldw	fp,0(sp)
 800217c:	dec00204 	addi	sp,sp,8
 8002180:	f800283a 	ret

08002184 <MAXbytes_rd>:
//multiple-byte read
//returns a pointer to a memory position after last written
BYTE* MAXbytes_rd(BYTE reg, BYTE nbytes, BYTE* data) {
 8002184:	defff604 	addi	sp,sp,-40
 8002188:	dfc00915 	stw	ra,36(sp)
 800218c:	df000815 	stw	fp,32(sp)
 8002190:	df000804 	addi	fp,sp,32
 8002194:	2007883a 	mov	r3,r4
 8002198:	2805883a 	mov	r2,r5
 800219c:	e1bfff15 	stw	r6,-4(fp)
 80021a0:	e0fffd05 	stb	r3,-12(fp)
 80021a4:	e0bffe05 	stb	r2,-8(fp)
	//pseudo-code:
	alt_u8 wdata[1];
	int return_code;
	//write reg via SPI
	wdata[0] = reg;
 80021a8:	e0bffd03 	ldbu	r2,-12(fp)
 80021ac:	e0bffc05 	stb	r2,-16(fp)
	//read data[n] from SPI, where n goes from 0 to nbytes-1
	while (nbytes) {
 80021b0:	00001206 	br	80021fc <MAXbytes_rd+0x78>
		return_code = alt_avalon_spi_command(SPI0_BASE, 0, 1, wdata, 1, data, 0);
 80021b4:	e0fffc04 	addi	r3,fp,-16
 80021b8:	d8000215 	stw	zero,8(sp)
 80021bc:	e0bfff17 	ldw	r2,-4(fp)
 80021c0:	d8800115 	stw	r2,4(sp)
 80021c4:	00800044 	movi	r2,1
 80021c8:	d8800015 	stw	r2,0(sp)
 80021cc:	180f883a 	mov	r7,r3
 80021d0:	01800044 	movi	r6,1
 80021d4:	000b883a 	mov	r5,zero
 80021d8:	01003004 	movi	r4,192
 80021dc:	80151700 	call	8015170 <alt_avalon_spi_command>
 80021e0:	e0bffb15 	stw	r2,-20(fp)
		data++;
 80021e4:	e0bfff17 	ldw	r2,-4(fp)
 80021e8:	10800044 	addi	r2,r2,1
 80021ec:	e0bfff15 	stw	r2,-4(fp)
		nbytes--;
 80021f0:	e0bffe03 	ldbu	r2,-8(fp)
 80021f4:	10bfffc4 	addi	r2,r2,-1
 80021f8:	e0bffe05 	stb	r2,-8(fp)
	alt_u8 wdata[1];
	int return_code;
	//write reg via SPI
	wdata[0] = reg;
	//read data[n] from SPI, where n goes from 0 to nbytes-1
	while (nbytes) {
 80021fc:	e0bffe03 	ldbu	r2,-8(fp)
 8002200:	103fec1e 	bne	r2,zero,80021b4 <__alt_data_end+0xfc0021b4>
		data++;
		nbytes--;
	}
	//read return code from SPI peripheral (see Intel documentation)
	//if return code < 0 print an error
	if (return_code < 0) {
 8002204:	e0bffb17 	ldw	r2,-20(fp)
 8002208:	1000030e 	bge	r2,zero,8002218 <MAXbytes_rd+0x94>
		printf("In MAXbytes_rd(), error writing register to USB host via SPI\n");
 800220c:	01020074 	movhi	r4,2049
 8002210:	211ab404 	addi	r4,r4,27344
 8002214:	80094b80 	call	80094b8 <puts>
	}
	//return (data + nbytes);
	return (data);
 8002218:	e0bfff17 	ldw	r2,-4(fp)
}
 800221c:	e037883a 	mov	sp,fp
 8002220:	dfc00117 	ldw	ra,4(sp)
 8002224:	df000017 	ldw	fp,0(sp)
 8002228:	dec00204 	addi	sp,sp,8
 800222c:	f800283a 	ret

08002230 <MAX3421E_reset>:
/* reset MAX3421E using chip reset bit. SPI configuration is not affected   */
void MAX3421E_reset(void) {
 8002230:	defffd04 	addi	sp,sp,-12
 8002234:	dfc00215 	stw	ra,8(sp)
 8002238:	df000115 	stw	fp,4(sp)
 800223c:	df000104 	addi	fp,sp,4
	//hardware reset, then software reset
	IOWR_ALTERA_AVALON_PIO_DATA(USB_RST_BASE, 0);
 8002240:	0007883a 	mov	r3,zero
 8002244:	0080a004 	movi	r2,640
 8002248:	10c00035 	stwio	r3,0(r2)
	usleep(1000000);
 800224c:	010003f4 	movhi	r4,15
 8002250:	21109004 	addi	r4,r4,16960
 8002254:	80144cc0 	call	80144cc <usleep>
	IOWR_ALTERA_AVALON_PIO_DATA(USB_RST_BASE, 1);
 8002258:	00c00044 	movi	r3,1
 800225c:	0080a004 	movi	r2,640
 8002260:	10c00035 	stwio	r3,0(r2)
	BYTE tmp = 0;
 8002264:	e03fff05 	stb	zero,-4(fp)
	MAXreg_wr( rUSBCTL, bmCHIPRES);      //Chip reset. This stops the oscillator
 8002268:	01400804 	movi	r5,32
 800226c:	01001e04 	movi	r4,120
 8002270:	8001fbc0 	call	8001fbc <MAXreg_wr>
	MAXreg_wr( rUSBCTL, 0x00);                          //Remove the reset
 8002274:	000b883a 	mov	r5,zero
 8002278:	01001e04 	movi	r4,120
 800227c:	8001fbc0 	call	8001fbc <MAXreg_wr>
	while (!(MAXreg_rd( rUSBIRQ) & bmOSCOKIRQ)) { //wait until the PLL stabilizes
 8002280:	00000806 	br	80022a4 <MAX3421E_reset+0x74>
		tmp++;                                      //timeout after 256 attempts
 8002284:	e0bfff03 	ldbu	r2,-4(fp)
 8002288:	10800044 	addi	r2,r2,1
 800228c:	e0bfff05 	stb	r2,-4(fp)
		if (tmp == 0) {
 8002290:	e0bfff03 	ldbu	r2,-4(fp)
 8002294:	1000031e 	bne	r2,zero,80022a4 <MAX3421E_reset+0x74>
			printf("reset timeout!");
 8002298:	01020074 	movhi	r4,2049
 800229c:	211ac404 	addi	r4,r4,27408
 80022a0:	800939c0 	call	800939c <printf>
	usleep(1000000);
	IOWR_ALTERA_AVALON_PIO_DATA(USB_RST_BASE, 1);
	BYTE tmp = 0;
	MAXreg_wr( rUSBCTL, bmCHIPRES);      //Chip reset. This stops the oscillator
	MAXreg_wr( rUSBCTL, 0x00);                          //Remove the reset
	while (!(MAXreg_rd( rUSBIRQ) & bmOSCOKIRQ)) { //wait until the PLL stabilizes
 80022a4:	01001a04 	movi	r4,104
 80022a8:	80021000 	call	8002100 <MAXreg_rd>
 80022ac:	10803fcc 	andi	r2,r2,255
 80022b0:	1080004c 	andi	r2,r2,1
 80022b4:	103ff326 	beq	r2,zero,8002284 <__alt_data_end+0xfc002284>
		tmp++;                                      //timeout after 256 attempts
		if (tmp == 0) {
			printf("reset timeout!");
		}
	}
}
 80022b8:	0001883a 	nop
 80022bc:	e037883a 	mov	sp,fp
 80022c0:	dfc00117 	ldw	ra,4(sp)
 80022c4:	df000017 	ldw	fp,0(sp)
 80022c8:	dec00204 	addi	sp,sp,8
 80022cc:	f800283a 	ret

080022d0 <Vbus_power>:
/* turn USB power on/off                                                */
/* ON pin of VBUS switch (MAX4793 or similar) is connected to GPOUT7    */
/* OVERLOAD pin of Vbus switch is connected to GPIN7                    */
/* OVERLOAD state low. NO OVERLOAD or VBUS OFF state high.              */
BOOL Vbus_power(BOOL action) {
 80022d0:	defffe04 	addi	sp,sp,-8
 80022d4:	df000115 	stw	fp,4(sp)
 80022d8:	df000104 	addi	fp,sp,4
 80022dc:	e13fff15 	stw	r4,-4(fp)
	// power on/off successful
	return (1);
 80022e0:	00800044 	movi	r2,1
}
 80022e4:	e037883a 	mov	sp,fp
 80022e8:	df000017 	ldw	fp,0(sp)
 80022ec:	dec00104 	addi	sp,sp,4
 80022f0:	f800283a 	ret

080022f4 <MAX_busprobe>:

/* probe bus to determine device presense and speed */
void MAX_busprobe(void) {
 80022f4:	defffd04 	addi	sp,sp,-12
 80022f8:	dfc00215 	stw	ra,8(sp)
 80022fc:	df000115 	stw	fp,4(sp)
 8002300:	df000104 	addi	fp,sp,4
	BYTE bus_sample;

//  MAXreg_wr(rHCTL,bmSAMPLEBUS);
	bus_sample = MAXreg_rd( rHRSL);            //Get J,K status
 8002304:	01003e04 	movi	r4,248
 8002308:	80021000 	call	8002100 <MAXreg_rd>
 800230c:	e0bfff05 	stb	r2,-4(fp)
	bus_sample &= ( bmJSTATUS | bmKSTATUS);      //zero the rest of the byte
 8002310:	e0ffff03 	ldbu	r3,-4(fp)
 8002314:	00bff004 	movi	r2,-64
 8002318:	1884703a 	and	r2,r3,r2
 800231c:	e0bfff05 	stb	r2,-4(fp)

	switch (bus_sample) {                   //start full-speed or low-speed host
 8002320:	e0bfff03 	ldbu	r2,-4(fp)
 8002324:	10c01020 	cmpeqi	r3,r2,64
 8002328:	1800221e 	bne	r3,zero,80023b4 <MAX_busprobe+0xc0>
 800232c:	10c01048 	cmpgei	r3,r2,65
 8002330:	1800021e 	bne	r3,zero,800233c <MAX_busprobe+0x48>
 8002334:	10003b26 	beq	r2,zero,8002424 <MAX_busprobe+0x130>
			MAXreg_wr( rMODE, MODE_FS_HOST); //start full-speed host
			usb_task_state = ( USB_DETACHED_SUBSTATE_WAIT_FOR_DEVICE);
		}
		break;
	} //end switch( bus_sample )
}
 8002338:	00004a06 	br	8002464 <MAX_busprobe+0x170>

//  MAXreg_wr(rHCTL,bmSAMPLEBUS);
	bus_sample = MAXreg_rd( rHRSL);            //Get J,K status
	bus_sample &= ( bmJSTATUS | bmKSTATUS);      //zero the rest of the byte

	switch (bus_sample) {                   //start full-speed or low-speed host
 800233c:	10c02020 	cmpeqi	r3,r2,128
 8002340:	1800031e 	bne	r3,zero,8002350 <MAX_busprobe+0x5c>
 8002344:	10803020 	cmpeqi	r2,r2,192
 8002348:	1000331e 	bne	r2,zero,8002418 <MAX_busprobe+0x124>
			MAXreg_wr( rMODE, MODE_FS_HOST); //start full-speed host
			usb_task_state = ( USB_DETACHED_SUBSTATE_WAIT_FOR_DEVICE);
		}
		break;
	} //end switch( bus_sample )
}
 800234c:	00004506 	br	8002464 <MAX_busprobe+0x170>
	bus_sample &= ( bmJSTATUS | bmKSTATUS);      //zero the rest of the byte

	switch (bus_sample) {                   //start full-speed or low-speed host
	case ( bmJSTATUS):
		/*kludgy*/
		if (usb_task_state != USB_ATTACHED_SUBSTATE_WAIT_RESET_COMPLETE) { //bus reset causes connection detect interrupt
 8002350:	d0a01003 	ldbu	r2,-32704(gp)
 8002354:	10803fcc 	andi	r2,r2,255
 8002358:	108004e0 	cmpeqi	r2,r2,19
 800235c:	10003e1e 	bne	r2,zero,8002458 <MAX_busprobe+0x164>
			if (!(MAXreg_rd( rMODE) & bmLOWSPEED)) {
 8002360:	01003604 	movi	r4,216
 8002364:	80021000 	call	8002100 <MAXreg_rd>
 8002368:	10803fcc 	andi	r2,r2,255
 800236c:	1080008c 	andi	r2,r2,2
 8002370:	1000071e 	bne	r2,zero,8002390 <MAX_busprobe+0x9c>
				MAXreg_wr( rMODE, MODE_FS_HOST);         //start full-speed host
 8002374:	01403244 	movi	r5,201
 8002378:	01003604 	movi	r4,216
 800237c:	8001fbc0 	call	8001fbc <MAXreg_wr>
				printf("Starting in full speed\n");
 8002380:	01020074 	movhi	r4,2049
 8002384:	211ac804 	addi	r4,r4,27424
 8002388:	80094b80 	call	80094b8 <puts>
 800238c:	00000606 	br	80023a8 <MAX_busprobe+0xb4>
			} else {
				MAXreg_wr( rMODE, MODE_LS_HOST);    //start low-speed host
 8002390:	014032c4 	movi	r5,203
 8002394:	01003604 	movi	r4,216
 8002398:	8001fbc0 	call	8001fbc <MAXreg_wr>
				printf("Starting in low speed\n");
 800239c:	01020074 	movhi	r4,2049
 80023a0:	211ace04 	addi	r4,r4,27448
 80023a4:	80094b80 	call	80094b8 <puts>
			}
			usb_task_state = ( USB_STATE_ATTACHED); //signal usb state machine to start attachment sequence
 80023a8:	00800404 	movi	r2,16
 80023ac:	d0a01005 	stb	r2,-32704(gp)
		}
		break;
 80023b0:	00002906 	br	8002458 <MAX_busprobe+0x164>
	case ( bmKSTATUS):
		if (usb_task_state != USB_ATTACHED_SUBSTATE_WAIT_RESET_COMPLETE) { //bus reset causes connection detect interrupt
 80023b4:	d0a01003 	ldbu	r2,-32704(gp)
 80023b8:	10803fcc 	andi	r2,r2,255
 80023bc:	108004e0 	cmpeqi	r2,r2,19
 80023c0:	1000271e 	bne	r2,zero,8002460 <MAX_busprobe+0x16c>
			if (!(MAXreg_rd( rMODE) & bmLOWSPEED)) {
 80023c4:	01003604 	movi	r4,216
 80023c8:	80021000 	call	8002100 <MAXreg_rd>
 80023cc:	10803fcc 	andi	r2,r2,255
 80023d0:	1080008c 	andi	r2,r2,2
 80023d4:	1000071e 	bne	r2,zero,80023f4 <MAX_busprobe+0x100>
				MAXreg_wr( rMODE, MODE_LS_HOST);   //start low-speed host
 80023d8:	014032c4 	movi	r5,203
 80023dc:	01003604 	movi	r4,216
 80023e0:	8001fbc0 	call	8001fbc <MAXreg_wr>
				printf("Starting in low speed\n");
 80023e4:	01020074 	movhi	r4,2049
 80023e8:	211ace04 	addi	r4,r4,27448
 80023ec:	80094b80 	call	80094b8 <puts>
 80023f0:	00000606 	br	800240c <MAX_busprobe+0x118>
			} else {
				MAXreg_wr( rMODE, MODE_FS_HOST);         //start full-speed host
 80023f4:	01403244 	movi	r5,201
 80023f8:	01003604 	movi	r4,216
 80023fc:	8001fbc0 	call	8001fbc <MAXreg_wr>
				printf("Starting in full speed\n");
 8002400:	01020074 	movhi	r4,2049
 8002404:	211ac804 	addi	r4,r4,27424
 8002408:	80094b80 	call	80094b8 <puts>
			}
			usb_task_state = ( USB_STATE_ATTACHED); //signal usb state machine to start attachment sequence
 800240c:	00800404 	movi	r2,16
 8002410:	d0a01005 	stb	r2,-32704(gp)
		}
		break;
 8002414:	00001206 	br	8002460 <MAX_busprobe+0x16c>
	case ( bmSE1):              //illegal state
		usb_task_state = ( USB_DETACHED_SUBSTATE_ILLEGAL);
 8002418:	00800104 	movi	r2,4
 800241c:	d0a01005 	stb	r2,-32704(gp)
		break;
 8002420:	00001006 	br	8002464 <MAX_busprobe+0x170>
	case ( bmSE0):              //disconnected state
		if (!((usb_task_state & USB_STATE_MASK) == USB_STATE_DETACHED)) //if we came here from other than detached state
 8002424:	d0a01003 	ldbu	r2,-32704(gp)
 8002428:	10803fcc 	andi	r2,r2,255
 800242c:	10803c0c 	andi	r2,r2,240
 8002430:	10000326 	beq	r2,zero,8002440 <MAX_busprobe+0x14c>
			usb_task_state = ( USB_DETACHED_SUBSTATE_INITIALIZE); //clear device data structures
 8002434:	00800044 	movi	r2,1
 8002438:	d0a01005 	stb	r2,-32704(gp)
		else {
			MAXreg_wr( rMODE, MODE_FS_HOST); //start full-speed host
			usb_task_state = ( USB_DETACHED_SUBSTATE_WAIT_FOR_DEVICE);
		}
		break;
 800243c:	00000906 	br	8002464 <MAX_busprobe+0x170>
		break;
	case ( bmSE0):              //disconnected state
		if (!((usb_task_state & USB_STATE_MASK) == USB_STATE_DETACHED)) //if we came here from other than detached state
			usb_task_state = ( USB_DETACHED_SUBSTATE_INITIALIZE); //clear device data structures
		else {
			MAXreg_wr( rMODE, MODE_FS_HOST); //start full-speed host
 8002440:	01403244 	movi	r5,201
 8002444:	01003604 	movi	r4,216
 8002448:	8001fbc0 	call	8001fbc <MAXreg_wr>
			usb_task_state = ( USB_DETACHED_SUBSTATE_WAIT_FOR_DEVICE);
 800244c:	008000c4 	movi	r2,3
 8002450:	d0a01005 	stb	r2,-32704(gp)
		}
		break;
 8002454:	00000306 	br	8002464 <MAX_busprobe+0x170>
				MAXreg_wr( rMODE, MODE_LS_HOST);    //start low-speed host
				printf("Starting in low speed\n");
			}
			usb_task_state = ( USB_STATE_ATTACHED); //signal usb state machine to start attachment sequence
		}
		break;
 8002458:	0001883a 	nop
 800245c:	00000106 	br	8002464 <MAX_busprobe+0x170>
				MAXreg_wr( rMODE, MODE_FS_HOST);         //start full-speed host
				printf("Starting in full speed\n");
			}
			usb_task_state = ( USB_STATE_ATTACHED); //signal usb state machine to start attachment sequence
		}
		break;
 8002460:	0001883a 	nop
			MAXreg_wr( rMODE, MODE_FS_HOST); //start full-speed host
			usb_task_state = ( USB_DETACHED_SUBSTATE_WAIT_FOR_DEVICE);
		}
		break;
	} //end switch( bus_sample )
}
 8002464:	0001883a 	nop
 8002468:	e037883a 	mov	sp,fp
 800246c:	dfc00117 	ldw	ra,4(sp)
 8002470:	df000017 	ldw	fp,0(sp)
 8002474:	dec00204 	addi	sp,sp,8
 8002478:	f800283a 	ret

0800247c <MAX3421E_init>:
/* MAX3421E initialization after power-on   */
void MAX3421E_init(void) {
 800247c:	defffe04 	addi	sp,sp,-8
 8002480:	dfc00115 	stw	ra,4(sp)
 8002484:	df000015 	stw	fp,0(sp)
 8002488:	d839883a 	mov	fp,sp
	/* Configure full-duplex SPI, interrupt pulse   */
	MAXreg_wr( rPINCTL, (bmFDUPSPI + bmINTLEVEL + bmGPXB)); //Full-duplex SPI, level interrupt, GPX
 800248c:	01400684 	movi	r5,26
 8002490:	01002204 	movi	r4,136
 8002494:	8001fbc0 	call	8001fbc <MAXreg_wr>
	MAX3421E_reset();                                //stop/start the oscillator
 8002498:	80022300 	call	8002230 <MAX3421E_reset>
	/* configure power switch   */
	Vbus_power( OFF);                                      //turn Vbus power off
 800249c:	0009883a 	mov	r4,zero
 80024a0:	80022d00 	call	80022d0 <Vbus_power>
	MAXreg_wr( rGPINIEN, bmGPINIEN7); //enable interrupt on GPIN7 (power switch overload flag)
 80024a4:	01402004 	movi	r5,128
 80024a8:	01002e04 	movi	r4,184
 80024ac:	8001fbc0 	call	8001fbc <MAXreg_wr>
	Vbus_power( ON);
 80024b0:	01000044 	movi	r4,1
 80024b4:	80022d00 	call	80022d0 <Vbus_power>
	/* configure host operation */
	MAXreg_wr( rMODE, bmDPPULLDN | bmDMPULLDN | bmHOST | bmSEPIRQ); // set pull-downs, SOF, Host, Separate GPIN IRQ on GPX
 80024b8:	01403444 	movi	r5,209
 80024bc:	01003604 	movi	r4,216
 80024c0:	8001fbc0 	call	8001fbc <MAXreg_wr>
	//MAXreg_wr( rHIEN, bmFRAMEIE|bmCONDETIE|bmBUSEVENTIE );                      // enable SOF, connection detection, bus event IRQs
	MAXreg_wr( rHIEN, bmCONDETIE);                        //connection detection
 80024c4:	01400804 	movi	r5,32
 80024c8:	01003404 	movi	r4,208
 80024cc:	8001fbc0 	call	8001fbc <MAXreg_wr>
	/* HXFRDNIRQ is checked in Dispatch packet function */
	MAXreg_wr(rHCTL, bmSAMPLEBUS);        // update the JSTATUS and KSTATUS bits
 80024d0:	01400104 	movi	r5,4
 80024d4:	01003a04 	movi	r4,232
 80024d8:	8001fbc0 	call	8001fbc <MAXreg_wr>
	MAX_busprobe();                             //check if anything is connected
 80024dc:	80022f40 	call	80022f4 <MAX_busprobe>
	MAXreg_wr( rHIRQ, bmCONDETIRQ); //clear connection detect interrupt                 
 80024e0:	01400804 	movi	r5,32
 80024e4:	01003204 	movi	r4,200
 80024e8:	8001fbc0 	call	8001fbc <MAXreg_wr>
	MAXreg_wr( rCPUCTL, 0x01);                            //enable interrupt pin
 80024ec:	01400044 	movi	r5,1
 80024f0:	01002004 	movi	r4,128
 80024f4:	8001fbc0 	call	8001fbc <MAXreg_wr>
}
 80024f8:	0001883a 	nop
 80024fc:	e037883a 	mov	sp,fp
 8002500:	dfc00117 	ldw	ra,4(sp)
 8002504:	df000017 	ldw	fp,0(sp)
 8002508:	dec00204 	addi	sp,sp,8
 800250c:	f800283a 	ret

08002510 <MAX3421E_Task>:

/* MAX3421 state change task and interrupt handler */
void MAX3421E_Task(void) {
 8002510:	defffe04 	addi	sp,sp,-8
 8002514:	dfc00115 	stw	ra,4(sp)
 8002518:	df000015 	stw	fp,0(sp)
 800251c:	d839883a 	mov	fp,sp
	if ( IORD_ALTERA_AVALON_PIO_DATA(USB_IRQ_BASE) == 0) {
 8002520:	0080a804 	movi	r2,672
 8002524:	10800037 	ldwio	r2,0(r2)
 8002528:	1000041e 	bne	r2,zero,800253c <MAX3421E_Task+0x2c>
		printf("MAX interrupt\n\r");
 800252c:	01020074 	movhi	r4,2049
 8002530:	211ad404 	addi	r4,r4,27472
 8002534:	800939c0 	call	800939c <printf>
		MaxIntHandler();
 8002538:	80025740 	call	8002574 <MaxIntHandler>
	}
	if ( IORD_ALTERA_AVALON_PIO_DATA(USB_GPX_BASE) == 1) {
 800253c:	0080a404 	movi	r2,656
 8002540:	10800037 	ldwio	r2,0(r2)
 8002544:	10800058 	cmpnei	r2,r2,1
 8002548:	1000041e 	bne	r2,zero,800255c <MAX3421E_Task+0x4c>
		printf("GPX interrupt\n\r");
 800254c:	01020074 	movhi	r4,2049
 8002550:	211ad804 	addi	r4,r4,27488
 8002554:	800939c0 	call	800939c <printf>
		MaxGpxHandler();
 8002558:	80026400 	call	8002640 <MaxGpxHandler>
	}
}
 800255c:	0001883a 	nop
 8002560:	e037883a 	mov	sp,fp
 8002564:	dfc00117 	ldw	ra,4(sp)
 8002568:	df000017 	ldw	fp,0(sp)
 800256c:	dec00204 	addi	sp,sp,8
 8002570:	f800283a 	ret

08002574 <MaxIntHandler>:

void MaxIntHandler(void) {
 8002574:	defffd04 	addi	sp,sp,-12
 8002578:	dfc00215 	stw	ra,8(sp)
 800257c:	df000115 	stw	fp,4(sp)
 8002580:	df000104 	addi	fp,sp,4
	BYTE HIRQ;
	BYTE HIRQ_sendback = 0x00;
 8002584:	e03fff05 	stb	zero,-4(fp)
	HIRQ = MAXreg_rd( rHIRQ);                  //determine interrupt source
 8002588:	01003204 	movi	r4,200
 800258c:	80021000 	call	8002100 <MAXreg_rd>
 8002590:	e0bfff45 	stb	r2,-3(fp)
	printf("IRQ: %x\n", HIRQ);
 8002594:	e0bfff43 	ldbu	r2,-3(fp)
 8002598:	100b883a 	mov	r5,r2
 800259c:	01020074 	movhi	r4,2049
 80025a0:	211adc04 	addi	r4,r4,27504
 80025a4:	800939c0 	call	800939c <printf>
	if (HIRQ & bmFRAMEIRQ) {                   //->1ms SOF interrupt handler
 80025a8:	e0bfff43 	ldbu	r2,-3(fp)
 80025ac:	1080100c 	andi	r2,r2,64
 80025b0:	10000326 	beq	r2,zero,80025c0 <MaxIntHandler+0x4c>
		HIRQ_sendback |= bmFRAMEIRQ;
 80025b4:	e0bfff03 	ldbu	r2,-4(fp)
 80025b8:	10801014 	ori	r2,r2,64
 80025bc:	e0bfff05 	stb	r2,-4(fp)
	}                   //end FRAMEIRQ handling

	if (HIRQ & bmCONDETIRQ) {
 80025c0:	e0bfff43 	ldbu	r2,-3(fp)
 80025c4:	1080080c 	andi	r2,r2,32
 80025c8:	10000426 	beq	r2,zero,80025dc <MaxIntHandler+0x68>
		MAX_busprobe();
 80025cc:	80022f40 	call	80022f4 <MAX_busprobe>
		HIRQ_sendback |= bmCONDETIRQ;      //set sendback to 1 to clear register
 80025d0:	e0bfff03 	ldbu	r2,-4(fp)
 80025d4:	10800814 	ori	r2,r2,32
 80025d8:	e0bfff05 	stb	r2,-4(fp)
	}
	if (HIRQ & bmSNDBAVIRQ) //if the send buffer is clear (previous transfer completed without issue)
 80025dc:	e0bfff43 	ldbu	r2,-3(fp)
 80025e0:	1080020c 	andi	r2,r2,8
 80025e4:	10000326 	beq	r2,zero,80025f4 <MaxIntHandler+0x80>
	{
		MAXreg_wr(rSNDBC, 0x00);//clear the send buffer (not really necessary, but clears interrupt)
 80025e8:	000b883a 	mov	r5,zero
 80025ec:	01000e04 	movi	r4,56
 80025f0:	8001fbc0 	call	8001fbc <MAXreg_wr>
	}
	if (HIRQ & bmBUSEVENTIRQ) {           //bus event is either reset or suspend
 80025f4:	e0bfff43 	ldbu	r2,-3(fp)
 80025f8:	1080004c 	andi	r2,r2,1
 80025fc:	10000626 	beq	r2,zero,8002618 <MaxIntHandler+0xa4>
		usb_task_state++;                       //advance USB task state machine
 8002600:	d0a01003 	ldbu	r2,-32704(gp)
 8002604:	10800044 	addi	r2,r2,1
 8002608:	d0a01005 	stb	r2,-32704(gp)
		HIRQ_sendback |= bmBUSEVENTIRQ;
 800260c:	e0bfff03 	ldbu	r2,-4(fp)
 8002610:	10800054 	ori	r2,r2,1
 8002614:	e0bfff05 	stb	r2,-4(fp)
	}
	/* End HIRQ interrupts handling, clear serviced IRQs    */
	MAXreg_wr( rHIRQ, HIRQ_sendback); //write '1' to CONDETIRQ to ack bus state change
 8002618:	e0bfff03 	ldbu	r2,-4(fp)
 800261c:	100b883a 	mov	r5,r2
 8002620:	01003204 	movi	r4,200
 8002624:	8001fbc0 	call	8001fbc <MAXreg_wr>
}
 8002628:	0001883a 	nop
 800262c:	e037883a 	mov	sp,fp
 8002630:	dfc00117 	ldw	ra,4(sp)
 8002634:	df000017 	ldw	fp,0(sp)
 8002638:	dec00204 	addi	sp,sp,8
 800263c:	f800283a 	ret

08002640 <MaxGpxHandler>:

void MaxGpxHandler(void) {
 8002640:	defffd04 	addi	sp,sp,-12
 8002644:	dfc00215 	stw	ra,8(sp)
 8002648:	df000115 	stw	fp,4(sp)
 800264c:	df000104 	addi	fp,sp,4
	BYTE GPINIRQ;
	GPINIRQ = MAXreg_rd( rGPINIRQ);            //read both IRQ registers
 8002650:	01002c04 	movi	r4,176
 8002654:	80021000 	call	8002100 <MAXreg_rd>
 8002658:	e0bfff05 	stb	r2,-4(fp)
}
 800265c:	0001883a 	nop
 8002660:	e037883a 	mov	sp,fp
 8002664:	dfc00117 	ldw	ra,4(sp)
 8002668:	df000017 	ldw	fp,0(sp)
 800266c:	dec00204 	addi	sp,sp,8
 8002670:	f800283a 	ret

08002674 <XferCtrlReq>:
/* depending on request. Actual requests are defined as macros                                                                                      */
/* return codes:                */
/* 00       =   success         */
/* 01-0f    =   non-zero HRSLT  */
BYTE XferCtrlReq( BYTE addr, BYTE ep, BYTE bmReqType, BYTE bRequest, BYTE wValLo, BYTE wValHi, WORD wInd, WORD nbytes, BYTE* dataptr )
{
 8002674:	defff104 	addi	sp,sp,-60
 8002678:	dfc00e15 	stw	ra,56(sp)
 800267c:	df000d15 	stw	fp,52(sp)
 8002680:	df000d04 	addi	fp,sp,52
 8002684:	2015883a 	mov	r10,r4
 8002688:	2813883a 	mov	r9,r5
 800268c:	3011883a 	mov	r8,r6
 8002690:	380d883a 	mov	r6,r7
 8002694:	e1400217 	ldw	r5,8(fp)
 8002698:	e1000317 	ldw	r4,12(fp)
 800269c:	e0c00417 	ldw	r3,16(fp)
 80026a0:	e0800517 	ldw	r2,20(fp)
 80026a4:	e2bff805 	stb	r10,-32(fp)
 80026a8:	e27ff905 	stb	r9,-28(fp)
 80026ac:	e23ffa05 	stb	r8,-24(fp)
 80026b0:	e1bffb05 	stb	r6,-20(fp)
 80026b4:	e17ffc05 	stb	r5,-16(fp)
 80026b8:	e13ffd05 	stb	r4,-12(fp)
 80026bc:	e0fffe0d 	sth	r3,-8(fp)
 80026c0:	e0bfff0d 	sth	r2,-4(fp)
 BOOL direction = FALSE;        //request direction, IN or OUT
 80026c4:	e03ff415 	stw	zero,-48(fp)
 BYTE datastage = 1; //request data stage present or absent
 80026c8:	00800044 	movi	r2,1
 80026cc:	e0bff505 	stb	r2,-44(fp)
 BYTE rcode;
 SETUP_PKT setup_pkt;
    if( dataptr == NULL ) {
 80026d0:	e0800617 	ldw	r2,24(fp)
 80026d4:	1000011e 	bne	r2,zero,80026dc <XferCtrlReq+0x68>
        datastage = 0;
 80026d8:	e03ff505 	stb	zero,-44(fp)
    }
    MAXreg_wr( rPERADDR, addr );                    //set peripheral address
 80026dc:	e0bff803 	ldbu	r2,-32(fp)
 80026e0:	100b883a 	mov	r5,r2
 80026e4:	01003804 	movi	r4,224
 80026e8:	8001fbc0 	call	8001fbc <MAXreg_wr>
    /* fill in setup packet */
    if( bmReqType & 0x80 ) {
 80026ec:	e0bffa03 	ldbu	r2,-24(fp)
 80026f0:	10803fcc 	andi	r2,r2,255
 80026f4:	1080201c 	xori	r2,r2,128
 80026f8:	10bfe004 	addi	r2,r2,-128
 80026fc:	1000020e 	bge	r2,zero,8002708 <XferCtrlReq+0x94>
        direction = TRUE;                   		//determine request direction
 8002700:	00800044 	movi	r2,1
 8002704:	e0bff415 	stw	r2,-48(fp)
    }
    /* fill in setup packet */
    setup_pkt.ReqType_u.bmRequestType = bmReqType;
 8002708:	e0bffa03 	ldbu	r2,-24(fp)
 800270c:	e0bff585 	stb	r2,-42(fp)
    setup_pkt.bRequest = bRequest;
 8002710:	e0bffb03 	ldbu	r2,-20(fp)
 8002714:	e0bff5c5 	stb	r2,-41(fp)
    setup_pkt.wVal_u.wValueLo = wValLo;
 8002718:	e0bffc03 	ldbu	r2,-16(fp)
 800271c:	e0bff605 	stb	r2,-40(fp)
    setup_pkt.wVal_u.wValueHi = wValHi;
 8002720:	e0bffd03 	ldbu	r2,-12(fp)
 8002724:	e0bff645 	stb	r2,-39(fp)
    setup_pkt.wIndex = wInd;
 8002728:	e0bffe0b 	ldhu	r2,-8(fp)
 800272c:	e0bff68d 	sth	r2,-38(fp)
    setup_pkt.wLength = nbytes;
 8002730:	e0bfff0b 	ldhu	r2,-4(fp)
 8002734:	e0bff70d 	sth	r2,-36(fp)
    MAXbytes_wr( rSUDFIFO, 8, (BYTE *)&setup_pkt );     //transfer to setup packet FIFO
 8002738:	e0bff584 	addi	r2,fp,-42
 800273c:	100d883a 	mov	r6,r2
 8002740:	01400204 	movi	r5,8
 8002744:	01000804 	movi	r4,32
 8002748:	80020480 	call	8002048 <MAXbytes_wr>
    rcode = XferDispatchPkt( tokSETUP, ep );            //dispatch packet
 800274c:	e0bff903 	ldbu	r2,-28(fp)
 8002750:	100b883a 	mov	r5,r2
 8002754:	01000404 	movi	r4,16
 8002758:	800291c0 	call	800291c <XferDispatchPkt>
 800275c:	e0bff545 	stb	r2,-43(fp)
    if( rcode ) {                                       //return HRSLT if not zero
 8002760:	e0bff543 	ldbu	r2,-43(fp)
 8002764:	10000226 	beq	r2,zero,8002770 <XferCtrlReq+0xfc>
        return( rcode );
 8002768:	e0bff543 	ldbu	r2,-43(fp)
 800276c:	00000f06 	br	80027ac <XferCtrlReq+0x138>
    }
    rcode = ctrl_xfers[ datastage ]( addr, ep, nbytes, dataptr, direction );    //call data stage or no data stage transfer
 8002770:	e0bff503 	ldbu	r2,-44(fp)
 8002774:	1085883a 	add	r2,r2,r2
 8002778:	1087883a 	add	r3,r2,r2
 800277c:	d0a00e04 	addi	r2,gp,-32712
 8002780:	1885883a 	add	r2,r3,r2
 8002784:	10800017 	ldw	r2,0(r2)
 8002788:	e13ff803 	ldbu	r4,-32(fp)
 800278c:	e17ff903 	ldbu	r5,-28(fp)
 8002790:	e1bfff0b 	ldhu	r6,-4(fp)
 8002794:	e0fff417 	ldw	r3,-48(fp)
 8002798:	d8c00015 	stw	r3,0(sp)
 800279c:	e1c00617 	ldw	r7,24(fp)
 80027a0:	103ee83a 	callr	r2
 80027a4:	e0bff545 	stb	r2,-43(fp)
    return( rcode );
 80027a8:	e0bff543 	ldbu	r2,-43(fp)
}
 80027ac:	e037883a 	mov	sp,fp
 80027b0:	dfc00117 	ldw	ra,4(sp)
 80027b4:	df000017 	ldw	fp,0(sp)
 80027b8:	dec00204 	addi	sp,sp,8
 80027bc:	f800283a 	ret

080027c0 <XferCtrlData>:
/* Control transfer with data stage */
BYTE XferCtrlData( BYTE addr, BYTE ep, WORD nbytes, BYTE* dataptr, BOOL direction )
{
 80027c0:	defff804 	addi	sp,sp,-32
 80027c4:	dfc00715 	stw	ra,28(sp)
 80027c8:	df000615 	stw	fp,24(sp)
 80027cc:	df000604 	addi	fp,sp,24
 80027d0:	2807883a 	mov	r3,r5
 80027d4:	3005883a 	mov	r2,r6
 80027d8:	e1ffff15 	stw	r7,-4(fp)
 80027dc:	e13ffc05 	stb	r4,-16(fp)
 80027e0:	e0fffd05 	stb	r3,-12(fp)
 80027e4:	e0bffe0d 	sth	r2,-8(fp)
  BYTE rcode;

    //MAXreg_wr( rHCTL, bmRCVTOG1 );       //set toggle to DATA1
    if( direction ) {   //IN transfer
 80027e8:	e0800217 	ldw	r2,8(fp)
 80027ec:	10002826 	beq	r2,zero,8002890 <XferCtrlData+0xd0>
        devtable[ addr ].epinfo[ ep ].rcvToggle = bmRCVTOG1;
 80027f0:	e0fffc03 	ldbu	r3,-16(fp)
 80027f4:	008200b4 	movhi	r2,2050
 80027f8:	10a9cd04 	addi	r2,r2,-22732
 80027fc:	180690fa 	slli	r3,r3,3
 8002800:	10c5883a 	add	r2,r2,r3
 8002804:	10c00017 	ldw	r3,0(r2)
 8002808:	e0bffd03 	ldbu	r2,-12(fp)
 800280c:	100490fa 	slli	r2,r2,3
 8002810:	1885883a 	add	r2,r3,r2
 8002814:	00c00804 	movi	r3,32
 8002818:	10c00185 	stb	r3,6(r2)
        rcode = XferInTransfer( addr, ep, nbytes, dataptr, devtable[ addr ].epinfo[ ep ].MaxPktSize );
 800281c:	e13ffc03 	ldbu	r4,-16(fp)
 8002820:	e17ffd03 	ldbu	r5,-12(fp)
 8002824:	e1bffe0b 	ldhu	r6,-8(fp)
 8002828:	e0fffc03 	ldbu	r3,-16(fp)
 800282c:	008200b4 	movhi	r2,2050
 8002830:	10a9cd04 	addi	r2,r2,-22732
 8002834:	180690fa 	slli	r3,r3,3
 8002838:	10c5883a 	add	r2,r2,r3
 800283c:	10c00017 	ldw	r3,0(r2)
 8002840:	e0bffd03 	ldbu	r2,-12(fp)
 8002844:	100490fa 	slli	r2,r2,3
 8002848:	1885883a 	add	r2,r3,r2
 800284c:	1080008b 	ldhu	r2,2(r2)
 8002850:	10803fcc 	andi	r2,r2,255
 8002854:	d8800015 	stw	r2,0(sp)
 8002858:	e1ffff17 	ldw	r7,-4(fp)
 800285c:	8002a980 	call	8002a98 <XferInTransfer>
 8002860:	e0bffb05 	stb	r2,-20(fp)
        if( rcode ) {
 8002864:	e0bffb03 	ldbu	r2,-20(fp)
 8002868:	10000226 	beq	r2,zero,8002874 <XferCtrlData+0xb4>
        return( rcode );
 800286c:	e0bffb03 	ldbu	r2,-20(fp)
 8002870:	00000806 	br	8002894 <XferCtrlData+0xd4>
        }
        rcode = XferDispatchPkt( tokOUTHS, ep );
 8002874:	e0bffd03 	ldbu	r2,-12(fp)
 8002878:	100b883a 	mov	r5,r2
 800287c:	01002804 	movi	r4,160
 8002880:	800291c0 	call	800291c <XferDispatchPkt>
 8002884:	e0bffb05 	stb	r2,-20(fp)
        return( rcode );
 8002888:	e0bffb03 	ldbu	r2,-20(fp)
 800288c:	00000106 	br	8002894 <XferCtrlData+0xd4>
    }
    else {              //OUT not implemented
        return( 0xff );
 8002890:	00bfffc4 	movi	r2,-1
    }
}
 8002894:	e037883a 	mov	sp,fp
 8002898:	dfc00117 	ldw	ra,4(sp)
 800289c:	df000017 	ldw	fp,0(sp)
 80028a0:	dec00204 	addi	sp,sp,8
 80028a4:	f800283a 	ret

080028a8 <XferCtrlND>:
/* Control transfer with status stage and no data stage */
BYTE XferCtrlND( BYTE addr, BYTE ep, WORD nbytes, BYTE* dataptr, BOOL direction )
{
 80028a8:	defff904 	addi	sp,sp,-28
 80028ac:	dfc00615 	stw	ra,24(sp)
 80028b0:	df000515 	stw	fp,20(sp)
 80028b4:	df000504 	addi	fp,sp,20
 80028b8:	2807883a 	mov	r3,r5
 80028bc:	3005883a 	mov	r2,r6
 80028c0:	e1ffff15 	stw	r7,-4(fp)
 80028c4:	e13ffc05 	stb	r4,-16(fp)
 80028c8:	e0fffd05 	stb	r3,-12(fp)
 80028cc:	e0bffe0d 	sth	r2,-8(fp)
  BYTE rcode;
    if( direction ) { //GET
 80028d0:	e0800217 	ldw	r2,8(fp)
 80028d4:	10000626 	beq	r2,zero,80028f0 <XferCtrlND+0x48>
        rcode = XferDispatchPkt( tokOUTHS, ep );
 80028d8:	e0bffd03 	ldbu	r2,-12(fp)
 80028dc:	100b883a 	mov	r5,r2
 80028e0:	01002804 	movi	r4,160
 80028e4:	800291c0 	call	800291c <XferDispatchPkt>
 80028e8:	e0bffb05 	stb	r2,-20(fp)
 80028ec:	00000506 	br	8002904 <XferCtrlND+0x5c>
    }
    else {
        rcode = XferDispatchPkt( tokINHS, ep );
 80028f0:	e0bffd03 	ldbu	r2,-12(fp)
 80028f4:	100b883a 	mov	r5,r2
 80028f8:	01002004 	movi	r4,128
 80028fc:	800291c0 	call	800291c <XferDispatchPkt>
 8002900:	e0bffb05 	stb	r2,-20(fp)
    }
    return( rcode );
 8002904:	e0bffb03 	ldbu	r2,-20(fp)
}
 8002908:	e037883a 	mov	sp,fp
 800290c:	dfc00117 	ldw	ra,4(sp)
 8002910:	df000017 	ldw	fp,0(sp)
 8002914:	dec00204 	addi	sp,sp,8
 8002918:	f800283a 	ret

0800291c <XferDispatchPkt>:
/* Result code: 0 success, nonzero = error condition                                                */
/* If NAK, tries to re-send up to USB_NAK_LIMIT times                                               */
/* If bus timeout, re-sends up to USB_RETRY_LIMIT times                                             */
/* return codes 0x00-0x0f are HRSLT( 0x00 being success ), 0xff means timeout                       */
BYTE XferDispatchPkt( BYTE token, BYTE ep )
{
 800291c:	defff904 	addi	sp,sp,-28
 8002920:	dfc00615 	stw	ra,24(sp)
 8002924:	df000515 	stw	fp,20(sp)
 8002928:	df000504 	addi	fp,sp,20
 800292c:	2007883a 	mov	r3,r4
 8002930:	2805883a 	mov	r2,r5
 8002934:	e0fffe05 	stb	r3,-8(fp)
 8002938:	e0bfff05 	stb	r2,-4(fp)
 * alt_nticks() returns the elapsed number of system clock ticks since reset.
 */

static ALT_INLINE alt_u32 ALT_ALWAYS_INLINE alt_nticks (void)
{
  return _alt_nticks;
 800293c:	d0a70d17 	ldw	r2,-25548(gp)
 DWORD timeout = (alt_nticks()*1000)/alt_ticks_per_second() + USB_XFER_TIMEOUT;
 8002940:	0140fa04 	movi	r5,1000
 8002944:	1009883a 	mov	r4,r2
 8002948:	800543c0 	call	800543c <__mulsi3>
 800294c:	1007883a 	mov	r3,r2
 * Obtain the system clock rate in ticks/s. 
 */

static ALT_INLINE alt_u32 ALT_ALWAYS_INLINE alt_ticks_per_second (void)
{
  return _alt_tick_rate;
 8002950:	d0a70c17 	ldw	r2,-25552(gp)
 8002954:	100b883a 	mov	r5,r2
 8002958:	1809883a 	mov	r4,r3
 800295c:	80053800 	call	8005380 <__udivsi3>
 8002960:	1084e204 	addi	r2,r2,5000
 8002964:	e0bffc15 	stw	r2,-16(fp)
 BYTE tmpdata;
 BYTE rcode;
 char retry_count = 0;
 8002968:	e03ffb45 	stb	zero,-19(fp)
 BYTE nak_count = 0;
 800296c:	e03ffb85 	stb	zero,-18(fp)

    while( 1 ) {
        MAXreg_wr( rHXFR, ( token|ep ));            //launch the transfer
 8002970:	e0fffe03 	ldbu	r3,-8(fp)
 8002974:	e0bfff03 	ldbu	r2,-4(fp)
 8002978:	1884b03a 	or	r2,r3,r2
 800297c:	10803fcc 	andi	r2,r2,255
 8002980:	100b883a 	mov	r5,r2
 8002984:	01003c04 	movi	r4,240
 8002988:	8001fbc0 	call	8001fbc <MAXreg_wr>
        rcode = 0xff;
 800298c:	00bfffc4 	movi	r2,-1
 8002990:	e0bffb05 	stb	r2,-20(fp)
        while( (alt_nticks()*1000)/alt_ticks_per_second() < timeout ) {
 8002994:	00000d06 	br	80029cc <XferDispatchPkt+0xb0>
            tmpdata = MAXreg_rd( rHIRQ );
 8002998:	01003204 	movi	r4,200
 800299c:	80021000 	call	8002100 <MAXreg_rd>
 80029a0:	e0bffd05 	stb	r2,-12(fp)
            if( tmpdata & bmHXFRDNIRQ ) {
 80029a4:	e0bffd03 	ldbu	r2,-12(fp)
 80029a8:	10803fcc 	andi	r2,r2,255
 80029ac:	1080201c 	xori	r2,r2,128
 80029b0:	10bfe004 	addi	r2,r2,-128
 80029b4:	1000050e 	bge	r2,zero,80029cc <XferDispatchPkt+0xb0>
                MAXreg_wr( rHIRQ, bmHXFRDNIRQ );    //clear the interrupt
 80029b8:	01402004 	movi	r5,128
 80029bc:	01003204 	movi	r4,200
 80029c0:	8001fbc0 	call	8001fbc <MAXreg_wr>
                rcode = 0x00;
 80029c4:	e03ffb05 	stb	zero,-20(fp)
                break;
 80029c8:	00000c06 	br	80029fc <XferDispatchPkt+0xe0>
 * alt_nticks() returns the elapsed number of system clock ticks since reset.
 */

static ALT_INLINE alt_u32 ALT_ALWAYS_INLINE alt_nticks (void)
{
  return _alt_nticks;
 80029cc:	d0a70d17 	ldw	r2,-25548(gp)
 BYTE nak_count = 0;

    while( 1 ) {
        MAXreg_wr( rHXFR, ( token|ep ));            //launch the transfer
        rcode = 0xff;
        while( (alt_nticks()*1000)/alt_ticks_per_second() < timeout ) {
 80029d0:	0140fa04 	movi	r5,1000
 80029d4:	1009883a 	mov	r4,r2
 80029d8:	800543c0 	call	800543c <__mulsi3>
 80029dc:	1007883a 	mov	r3,r2
 * Obtain the system clock rate in ticks/s. 
 */

static ALT_INLINE alt_u32 ALT_ALWAYS_INLINE alt_ticks_per_second (void)
{
  return _alt_tick_rate;
 80029e0:	d0a70c17 	ldw	r2,-25552(gp)
 80029e4:	100b883a 	mov	r5,r2
 80029e8:	1809883a 	mov	r4,r3
 80029ec:	80053800 	call	8005380 <__udivsi3>
 80029f0:	1007883a 	mov	r3,r2
 80029f4:	e0bffc17 	ldw	r2,-16(fp)
 80029f8:	18bfe736 	bltu	r3,r2,8002998 <__alt_data_end+0xfc002998>
                MAXreg_wr( rHIRQ, bmHXFRDNIRQ );    //clear the interrupt
                rcode = 0x00;
                break;
            }
        }
        if( rcode != 0x00 ) {               //exit if timeout
 80029fc:	e0bffb03 	ldbu	r2,-20(fp)
 8002a00:	10000226 	beq	r2,zero,8002a0c <XferDispatchPkt+0xf0>
            return( rcode );
 8002a04:	e0bffb03 	ldbu	r2,-20(fp)
 8002a08:	00001e06 	br	8002a84 <XferDispatchPkt+0x168>
        }
        rcode = ( MAXreg_rd( rHRSL ) & 0x0f );
 8002a0c:	01003e04 	movi	r4,248
 8002a10:	80021000 	call	8002100 <MAXreg_rd>
 8002a14:	108003cc 	andi	r2,r2,15
 8002a18:	e0bffb05 	stb	r2,-20(fp)
        if( rcode == hrNAK ) {
 8002a1c:	e0bffb03 	ldbu	r2,-20(fp)
 8002a20:	10800118 	cmpnei	r2,r2,4
 8002a24:	1000071e 	bne	r2,zero,8002a44 <XferDispatchPkt+0x128>
            nak_count++;
 8002a28:	e0bffb83 	ldbu	r2,-18(fp)
 8002a2c:	10800044 	addi	r2,r2,1
 8002a30:	e0bffb85 	stb	r2,-18(fp)
            if( nak_count == USB_NAK_LIMIT ) {
 8002a34:	e0bffb83 	ldbu	r2,-18(fp)
 8002a38:	10803218 	cmpnei	r2,r2,200
 8002a3c:	10000b1e 	bne	r2,zero,8002a6c <XferDispatchPkt+0x150>
                break;
 8002a40:	00000f06 	br	8002a80 <XferDispatchPkt+0x164>
            }
            else {
                continue;
            }
        }
        if( rcode == hrTIMEOUT ) {
 8002a44:	e0bffb03 	ldbu	r2,-20(fp)
 8002a48:	10800398 	cmpnei	r2,r2,14
 8002a4c:	1000091e 	bne	r2,zero,8002a74 <XferDispatchPkt+0x158>
            retry_count++;
 8002a50:	e0bffb43 	ldbu	r2,-19(fp)
 8002a54:	10800044 	addi	r2,r2,1
 8002a58:	e0bffb45 	stb	r2,-19(fp)
            if( retry_count == USB_RETRY_LIMIT ) {
 8002a5c:	e0bffb47 	ldb	r2,-19(fp)
 8002a60:	108000d8 	cmpnei	r2,r2,3
 8002a64:	10000526 	beq	r2,zero,8002a7c <XferDispatchPkt+0x160>
                break;
            }
            else {
                continue;
 8002a68:	00000106 	br	8002a70 <XferDispatchPkt+0x154>
            nak_count++;
            if( nak_count == USB_NAK_LIMIT ) {
                break;
            }
            else {
                continue;
 8002a6c:	0001883a 	nop
            else {
                continue;
            }
        }
        else break;
    }//while( 1 )
 8002a70:	003fbf06 	br	8002970 <__alt_data_end+0xfc002970>
            }
            else {
                continue;
            }
        }
        else break;
 8002a74:	0001883a 	nop
 8002a78:	00000106 	br	8002a80 <XferDispatchPkt+0x164>
            }
        }
        if( rcode == hrTIMEOUT ) {
            retry_count++;
            if( retry_count == USB_RETRY_LIMIT ) {
                break;
 8002a7c:	0001883a 	nop
                continue;
            }
        }
        else break;
    }//while( 1 )
    return( rcode );
 8002a80:	e0bffb03 	ldbu	r2,-20(fp)
}
 8002a84:	e037883a 	mov	sp,fp
 8002a88:	dfc00117 	ldw	ra,4(sp)
 8002a8c:	df000017 	ldw	fp,0(sp)
 8002a90:	dec00204 	addi	sp,sp,8
 8002a94:	f800283a 	ret

08002a98 <XferInTransfer>:
/* IN transfer to arbitrary endpoint. Assumes PERADDR is set. Handles multiple packets if necessary. Transfers 'nbytes' bytes.
    Keep sending INs and writes data to memory area pointed by 'data' */
/* rcode 0 if no errors. rcode 01-0f is relayed from prvXferDispatchPkt(). Rcode f0 means RCVDAVIRQ error,
            fe USB xfer timeout */
BYTE XferInTransfer( BYTE addr/* not sure if it's necessary */, BYTE ep, WORD nbytes, BYTE* data, BYTE maxpktsize )
{
 8002a98:	defff804 	addi	sp,sp,-32
 8002a9c:	dfc00715 	stw	ra,28(sp)
 8002aa0:	df000615 	stw	fp,24(sp)
 8002aa4:	df000604 	addi	fp,sp,24
 8002aa8:	2011883a 	mov	r8,r4
 8002aac:	2809883a 	mov	r4,r5
 8002ab0:	3007883a 	mov	r3,r6
 8002ab4:	e1fffe15 	stw	r7,-8(fp)
 8002ab8:	e0800217 	ldw	r2,8(fp)
 8002abc:	e23ffb05 	stb	r8,-20(fp)
 8002ac0:	e13ffc05 	stb	r4,-16(fp)
 8002ac4:	e0fffd0d 	sth	r3,-12(fp)
 8002ac8:	e0bfff05 	stb	r2,-4(fp)
 BYTE rcode;
 BYTE i;
 BYTE tmpbyte;
 BYTE pktsize;
 WORD xfrlen = 0;
 8002acc:	e03ffa0d 	sth	zero,-24(fp)
    MAXreg_wr( rHCTL, devtable[ addr ].epinfo[ ep ].rcvToggle );    //set toggle value
 8002ad0:	e0fffb03 	ldbu	r3,-20(fp)
 8002ad4:	008200b4 	movhi	r2,2050
 8002ad8:	10a9cd04 	addi	r2,r2,-22732
 8002adc:	180690fa 	slli	r3,r3,3
 8002ae0:	10c5883a 	add	r2,r2,r3
 8002ae4:	10c00017 	ldw	r3,0(r2)
 8002ae8:	e0bffc03 	ldbu	r2,-16(fp)
 8002aec:	100490fa 	slli	r2,r2,3
 8002af0:	1885883a 	add	r2,r3,r2
 8002af4:	10800183 	ldbu	r2,6(r2)
 8002af8:	10803fcc 	andi	r2,r2,255
 8002afc:	100b883a 	mov	r5,r2
 8002b00:	01003a04 	movi	r4,232
 8002b04:	8001fbc0 	call	8001fbc <MAXreg_wr>
    while( 1 ) { // use a 'return' to exit this loop
        rcode = XferDispatchPkt( tokIN, ep );           //IN packet to EP-'endpoint'. Function takes care of NAKS.
 8002b08:	e0bffc03 	ldbu	r2,-16(fp)
 8002b0c:	100b883a 	mov	r5,r2
 8002b10:	0009883a 	mov	r4,zero
 8002b14:	800291c0 	call	800291c <XferDispatchPkt>
 8002b18:	e0bffa85 	stb	r2,-22(fp)
        if( rcode ) {
 8002b1c:	e0bffa83 	ldbu	r2,-22(fp)
 8002b20:	10000226 	beq	r2,zero,8002b2c <XferInTransfer+0x94>
            return( rcode );                            //should be 0, indicating ACK. Else return error code.
 8002b24:	e0bffa83 	ldbu	r2,-22(fp)
 8002b28:	00003a06 	br	8002c14 <XferInTransfer+0x17c>
        }
        /* check for RCVDAVIRQ and generate error if not present */
        /* the only case when absence of RCVDAVIRQ makes sense is when toggle error occurred. Need to add handling for that */
        if(( MAXreg_rd( rHIRQ ) & bmRCVDAVIRQ ) == 0 ) {
 8002b2c:	01003204 	movi	r4,200
 8002b30:	80021000 	call	8002100 <MAXreg_rd>
 8002b34:	10803fcc 	andi	r2,r2,255
 8002b38:	1080010c 	andi	r2,r2,4
 8002b3c:	1000021e 	bne	r2,zero,8002b48 <XferInTransfer+0xb0>
            return ( 0xf0 );                            //receive error
 8002b40:	00bffc04 	movi	r2,-16
 8002b44:	00003306 	br	8002c14 <XferInTransfer+0x17c>
        }
        pktsize = MAXreg_rd( rRCVBC );                  //number of received bytes
 8002b48:	01000c04 	movi	r4,48
 8002b4c:	80021000 	call	8002100 <MAXreg_rd>
 8002b50:	e0bffac5 	stb	r2,-21(fp)
        //printf ("pktsize: %d\n", pktsize);
        data = MAXbytes_rd( rRCVFIFO, pktsize, data );
 8002b54:	e0bffac3 	ldbu	r2,-21(fp)
 8002b58:	e1bffe17 	ldw	r6,-8(fp)
 8002b5c:	100b883a 	mov	r5,r2
 8002b60:	01000204 	movi	r4,8
 8002b64:	80021840 	call	8002184 <MAXbytes_rd>
 8002b68:	e0bffe15 	stw	r2,-8(fp)
        MAXreg_wr( rHIRQ, bmRCVDAVIRQ );                // Clear the IRQ & free the buffer
 8002b6c:	01400104 	movi	r5,4
 8002b70:	01003204 	movi	r4,200
 8002b74:	8001fbc0 	call	8001fbc <MAXreg_wr>
        xfrlen += pktsize;                              // add this packet's byte count to total transfer length
 8002b78:	e0fffac3 	ldbu	r3,-21(fp)
 8002b7c:	e0bffa0b 	ldhu	r2,-24(fp)
 8002b80:	1885883a 	add	r2,r3,r2
 8002b84:	e0bffa0d 	sth	r2,-24(fp)
        /* The transfer is complete under two conditions:           */
        /* 1. The device sent a short packet (L.T. maxPacketSize)   */
        /* 2. 'nbytes' have been transferred.                       */
        if (( pktsize < maxpktsize ) || (xfrlen >= nbytes )) {    // have we transferred 'nbytes' bytes?
 8002b88:	e0fffac3 	ldbu	r3,-21(fp)
 8002b8c:	e0bfff03 	ldbu	r2,-4(fp)
 8002b90:	18800336 	bltu	r3,r2,8002ba0 <XferInTransfer+0x108>
 8002b94:	e0fffa0b 	ldhu	r3,-24(fp)
 8002b98:	e0bffd0b 	ldhu	r2,-12(fp)
 8002b9c:	18bfda36 	bltu	r3,r2,8002b08 <__alt_data_end+0xfc002b08>
            if( MAXreg_rd( rHRSL ) & bmRCVTOGRD ) {                 //save toggle value
 8002ba0:	01003e04 	movi	r4,248
 8002ba4:	80021000 	call	8002100 <MAXreg_rd>
 8002ba8:	10803fcc 	andi	r2,r2,255
 8002bac:	1080040c 	andi	r2,r2,16
 8002bb0:	10000c26 	beq	r2,zero,8002be4 <XferInTransfer+0x14c>
                devtable[ addr ].epinfo[ ep ].rcvToggle = bmRCVTOG1;
 8002bb4:	e0fffb03 	ldbu	r3,-20(fp)
 8002bb8:	008200b4 	movhi	r2,2050
 8002bbc:	10a9cd04 	addi	r2,r2,-22732
 8002bc0:	180690fa 	slli	r3,r3,3
 8002bc4:	10c5883a 	add	r2,r2,r3
 8002bc8:	10c00017 	ldw	r3,0(r2)
 8002bcc:	e0bffc03 	ldbu	r2,-16(fp)
 8002bd0:	100490fa 	slli	r2,r2,3
 8002bd4:	1885883a 	add	r2,r3,r2
 8002bd8:	00c00804 	movi	r3,32
 8002bdc:	10c00185 	stb	r3,6(r2)
 8002be0:	00000b06 	br	8002c10 <XferInTransfer+0x178>
            }
            else {
                devtable[ addr ].epinfo[ ep ].rcvToggle = bmRCVTOG0;
 8002be4:	e0fffb03 	ldbu	r3,-20(fp)
 8002be8:	008200b4 	movhi	r2,2050
 8002bec:	10a9cd04 	addi	r2,r2,-22732
 8002bf0:	180690fa 	slli	r3,r3,3
 8002bf4:	10c5883a 	add	r2,r2,r3
 8002bf8:	10c00017 	ldw	r3,0(r2)
 8002bfc:	e0bffc03 	ldbu	r2,-16(fp)
 8002c00:	100490fa 	slli	r2,r2,3
 8002c04:	1885883a 	add	r2,r3,r2
 8002c08:	00c00404 	movi	r3,16
 8002c0c:	10c00185 	stb	r3,6(r2)
            }
            return( 0 );
 8002c10:	0005883a 	mov	r2,zero
        }
  }//while( 1 )
}
 8002c14:	e037883a 	mov	sp,fp
 8002c18:	dfc00117 	ldw	ra,4(sp)
 8002c1c:	df000017 	ldw	fp,0(sp)
 8002c20:	dec00204 	addi	sp,sp,8
 8002c24:	f800283a 	ret

08002c28 <USB_init>:
/* initialization of USB data structures */
void USB_init( void )
{
 8002c28:	defffe04 	addi	sp,sp,-8
 8002c2c:	df000115 	stw	fp,4(sp)
 8002c30:	df000104 	addi	fp,sp,4
  BYTE i;
    for( i = 0; i < ( USB_NUMDEVICES + 1 ); i++ ) {
 8002c34:	e03fff05 	stb	zero,-4(fp)
 8002c38:	00001006 	br	8002c7c <USB_init+0x54>
        devtable[ i ].epinfo = NULL;       //clear device table
 8002c3c:	e0ffff03 	ldbu	r3,-4(fp)
 8002c40:	008200b4 	movhi	r2,2050
 8002c44:	10a9cd04 	addi	r2,r2,-22732
 8002c48:	180690fa 	slli	r3,r3,3
 8002c4c:	10c5883a 	add	r2,r2,r3
 8002c50:	10000015 	stw	zero,0(r2)
        devtable[ i ].devclass = 0;
 8002c54:	e0ffff03 	ldbu	r3,-4(fp)
 8002c58:	008200b4 	movhi	r2,2050
 8002c5c:	10a9cd04 	addi	r2,r2,-22732
 8002c60:	180690fa 	slli	r3,r3,3
 8002c64:	10c5883a 	add	r2,r2,r3
 8002c68:	10800104 	addi	r2,r2,4
 8002c6c:	10000005 	stb	zero,0(r2)
}
/* initialization of USB data structures */
void USB_init( void )
{
  BYTE i;
    for( i = 0; i < ( USB_NUMDEVICES + 1 ); i++ ) {
 8002c70:	e0bfff03 	ldbu	r2,-4(fp)
 8002c74:	10800044 	addi	r2,r2,1
 8002c78:	e0bfff05 	stb	r2,-4(fp)
 8002c7c:	e0bfff03 	ldbu	r2,-4(fp)
 8002c80:	10800270 	cmpltui	r2,r2,9
 8002c84:	103fed1e 	bne	r2,zero,8002c3c <__alt_data_end+0xfc002c3c>
        devtable[ i ].epinfo = NULL;       //clear device table
        devtable[ i ].devclass = 0;
    }
    devtable[ 0 ].epinfo = &dev0ep;  //set single ep for uninitialized device
 8002c88:	008200b4 	movhi	r2,2050
 8002c8c:	10a9cd04 	addi	r2,r2,-22732
 8002c90:	d0e6fd04 	addi	r3,gp,-25612
 8002c94:	10c00015 	stw	r3,0(r2)
    dev0ep.MaxPktSize = 0;
 8002c98:	d026fd8d 	sth	zero,-25610(gp)
    dev0ep.sndToggle = bmSNDTOG0;   //set DATA0/1 toggles to 0
 8002c9c:	00801004 	movi	r2,64
 8002ca0:	d0a6fe45 	stb	r2,-25607(gp)
    dev0ep.rcvToggle = bmRCVTOG0;
 8002ca4:	00800404 	movi	r2,16
 8002ca8:	d0a6fe85 	stb	r2,-25606(gp)
}
 8002cac:	0001883a 	nop
 8002cb0:	e037883a 	mov	sp,fp
 8002cb4:	df000017 	ldw	fp,0(sp)
 8002cb8:	dec00104 	addi	sp,sp,4
 8002cbc:	f800283a 	ret

08002cc0 <USB_Task>:
/* error codes: 01-0f HRSLT        */
/* ff - unsupported device         */
/* fe - no address available       */
/* fd - no client driver available */
void USB_Task( void )
{
 8002cc0:	deffb204 	addi	sp,sp,-312
 8002cc4:	dfc04d15 	stw	ra,308(sp)
 8002cc8:	df004c15 	stw	fp,304(sp)
 8002ccc:	dc004b15 	stw	r16,300(sp)
 8002cd0:	df004c04 	addi	fp,sp,304
 USB_DEVICE_DESCRIPTOR buf;

 BYTE rcode, tmpdata;
 BYTE i;

    switch( usb_task_state & USB_STATE_MASK ) {
 8002cd4:	d0a01003 	ldbu	r2,-32704(gp)
 8002cd8:	10803fcc 	andi	r2,r2,255
 8002cdc:	10803c0c 	andi	r2,r2,240
 8002ce0:	10c00820 	cmpeqi	r3,r2,32
 8002ce4:	1801121e 	bne	r3,zero,8003130 <USB_Task+0x470>
 8002ce8:	10c00848 	cmpgei	r3,r2,33
 8002cec:	1800041e 	bne	r3,zero,8002d00 <USB_Task+0x40>
 8002cf0:	10000a26 	beq	r2,zero,8002d1c <USB_Task+0x5c>
 8002cf4:	10800420 	cmpeqi	r2,r2,16
 8002cf8:	10001b1e 	bne	r2,zero,8002d68 <USB_Task+0xa8>
        case( USB_STATE_ERROR ):
            //vTaskDelay( LED_RATE ); //stay here if error
            break;//( USB_STATE_ERROR )
        default:
            //Should never get here
            break;
 8002cfc:	00017a06 	br	80032e8 <USB_Task+0x628>
 USB_DEVICE_DESCRIPTOR buf;

 BYTE rcode, tmpdata;
 BYTE i;

    switch( usb_task_state & USB_STATE_MASK ) {
 8002d00:	10c01020 	cmpeqi	r3,r2,64
 8002d04:	18016f1e 	bne	r3,zero,80032c4 <USB_Task+0x604>
 8002d08:	10c03fe0 	cmpeqi	r3,r2,255
 8002d0c:	18016f1e 	bne	r3,zero,80032cc <USB_Task+0x60c>
 8002d10:	10800c20 	cmpeqi	r2,r2,48
 8002d14:	1001441e 	bne	r2,zero,8003228 <USB_Task+0x568>
        case( USB_STATE_ERROR ):
            //vTaskDelay( LED_RATE ); //stay here if error
            break;//( USB_STATE_ERROR )
        default:
            //Should never get here
            break;
 8002d18:	00017306 	br	80032e8 <USB_Task+0x628>
 BYTE i;

    switch( usb_task_state & USB_STATE_MASK ) {
        /* Detached state - when nothing is connected to ( or just disconnected from) USB bus   */
        case( USB_STATE_DETACHED ):
            switch( usb_task_state ) {
 8002d1c:	d0a01003 	ldbu	r2,-32704(gp)
 8002d20:	10803fcc 	andi	r2,r2,255
 8002d24:	10c000e0 	cmpeqi	r3,r2,3
 8002d28:	1800091e 	bne	r3,zero,8002d50 <USB_Task+0x90>
 8002d2c:	10c00120 	cmpeqi	r3,r2,4
 8002d30:	18000b1e 	bne	r3,zero,8002d60 <USB_Task+0xa0>
 8002d34:	10800060 	cmpeqi	r2,r2,1
 8002d38:	1000011e 	bne	r2,zero,8002d40 <USB_Task+0x80>
                    break;
                case( USB_DETACHED_SUBSTATE_ILLEGAL ):
                    /* don't know what to do yet */
                    break;
            }//switch( usb_task_state )
            break;//( USB_STATE_DETACHED ):
 8002d3c:	00016a06 	br	80032e8 <USB_Task+0x628>
        /* Detached state - when nothing is connected to ( or just disconnected from) USB bus   */
        case( USB_STATE_DETACHED ):
            switch( usb_task_state ) {
                case( USB_DETACHED_SUBSTATE_INITIALIZE ):
                    /* cleanup device data structures */
                    USB_init();
 8002d40:	8002c280 	call	8002c28 <USB_init>
                    usb_task_state = USB_DETACHED_SUBSTATE_WAIT_FOR_DEVICE;
 8002d44:	008000c4 	movi	r2,3
 8002d48:	d0a01005 	stb	r2,-32704(gp)
                    break;
 8002d4c:	00000506 	br	8002d64 <USB_Task+0xa4>
                case( USB_DETACHED_SUBSTATE_WAIT_FOR_DEVICE ):
                    /* Do nothing */
                    MAXreg_wr(rHCTL,bmSAMPLEBUS);
 8002d50:	01400104 	movi	r5,4
 8002d54:	01003a04 	movi	r4,232
 8002d58:	8001fbc0 	call	8001fbc <MAXreg_wr>
                    break;
 8002d5c:	00000106 	br	8002d64 <USB_Task+0xa4>
                case( USB_DETACHED_SUBSTATE_ILLEGAL ):
                    /* don't know what to do yet */
                    break;
 8002d60:	0001883a 	nop
            }//switch( usb_task_state )
            break;//( USB_STATE_DETACHED ):
 8002d64:	00016006 	br	80032e8 <USB_Task+0x628>
            /**/
        case( USB_STATE_ATTACHED ):                     //prepare for enumeration
            switch( usb_task_state ) {
 8002d68:	d0a01003 	ldbu	r2,-32704(gp)
 8002d6c:	10803fcc 	andi	r2,r2,255
 8002d70:	10bffc04 	addi	r2,r2,-16
 8002d74:	10c001a8 	cmpgeui	r3,r2,6
 8002d78:	1801561e 	bne	r3,zero,80032d4 <USB_Task+0x614>
 8002d7c:	100690ba 	slli	r3,r2,2
 8002d80:	00820034 	movhi	r2,2048
 8002d84:	108b6504 	addi	r2,r2,11668
 8002d88:	1885883a 	add	r2,r3,r2
 8002d8c:	10800017 	ldw	r2,0(r2)
 8002d90:	1000683a 	jmp	r2
 8002d94:	08002dac 	andhi	zero,at,182
 8002d98:	08002de4 	muli	zero,at,183
 8002d9c:	08002e20 	cmpeqi	zero,at,184
 8002da0:	08002e44 	addi	zero,at,185
 8002da4:	08002e84 	addi	zero,at,186
 8002da8:	08002e98 	cmpnei	zero,at,186
 * alt_nticks() returns the elapsed number of system clock ticks since reset.
 */

static ALT_INLINE alt_u32 ALT_ALWAYS_INLINE alt_nticks (void)
{
  return _alt_nticks;
 8002dac:	d0a70d17 	ldw	r2,-25548(gp)
                case( USB_STATE_ATTACHED ):
                    usb_delay = (alt_nticks()*1000)/alt_ticks_per_second() + 200;           //initial settle 200ms
 8002db0:	0140fa04 	movi	r5,1000
 8002db4:	1009883a 	mov	r4,r2
 8002db8:	800543c0 	call	800543c <__mulsi3>
 8002dbc:	1007883a 	mov	r3,r2
 * Obtain the system clock rate in ticks/s. 
 */

static ALT_INLINE alt_u32 ALT_ALWAYS_INLINE alt_ticks_per_second (void)
{
  return _alt_tick_rate;
 8002dc0:	d0a70c17 	ldw	r2,-25552(gp)
 8002dc4:	100b883a 	mov	r5,r2
 8002dc8:	1809883a 	mov	r4,r3
 8002dcc:	80053800 	call	8005380 <__udivsi3>
 8002dd0:	10803204 	addi	r2,r2,200
 8002dd4:	d0a70015 	stw	r2,-25600(gp)
                    usb_task_state = USB_ATTACHED_SUBSTATE_SETTLE;
 8002dd8:	00800444 	movi	r2,17
 8002ddc:	d0a01005 	stb	r2,-32704(gp)
                    break;//case( USB_STATE_ATTACHED )
 8002de0:	0000d206 	br	800312c <USB_Task+0x46c>
 * alt_nticks() returns the elapsed number of system clock ticks since reset.
 */

static ALT_INLINE alt_u32 ALT_ALWAYS_INLINE alt_nticks (void)
{
  return _alt_nticks;
 8002de4:	d0a70d17 	ldw	r2,-25548(gp)
                case( USB_ATTACHED_SUBSTATE_SETTLE ):   //waiting for settle timer to expire
                    if( (alt_nticks()*1000)/alt_ticks_per_second() > usb_delay ) {
 8002de8:	0140fa04 	movi	r5,1000
 8002dec:	1009883a 	mov	r4,r2
 8002df0:	800543c0 	call	800543c <__mulsi3>
 8002df4:	1007883a 	mov	r3,r2
 * Obtain the system clock rate in ticks/s. 
 */

static ALT_INLINE alt_u32 ALT_ALWAYS_INLINE alt_ticks_per_second (void)
{
  return _alt_tick_rate;
 8002df8:	d0a70c17 	ldw	r2,-25552(gp)
 8002dfc:	100b883a 	mov	r5,r2
 8002e00:	1809883a 	mov	r4,r3
 8002e04:	80053800 	call	8005380 <__udivsi3>
 8002e08:	1007883a 	mov	r3,r2
 8002e0c:	d0a70017 	ldw	r2,-25600(gp)
 8002e10:	10c0c32e 	bgeu	r2,r3,8003120 <USB_Task+0x460>
                        usb_task_state = USB_ATTACHED_SUBSTATE_RESET_DEVICE;
 8002e14:	00800484 	movi	r2,18
 8002e18:	d0a01005 	stb	r2,-32704(gp)
                    }
                    break;//case( USB_ATTACHED_SUBSTATE_SETTLE )
 8002e1c:	0000c006 	br	8003120 <USB_Task+0x460>
                case( USB_ATTACHED_SUBSTATE_RESET_DEVICE ):
                    MAXreg_wr( rHIRQ, bmBUSEVENTIRQ );                               //clear bus event IRQ
 8002e20:	01400044 	movi	r5,1
 8002e24:	01003204 	movi	r4,200
 8002e28:	8001fbc0 	call	8001fbc <MAXreg_wr>
                    MAXreg_wr( rHCTL, bmBUSRST );                                    //issue bus reset
 8002e2c:	01400044 	movi	r5,1
 8002e30:	01003a04 	movi	r4,232
 8002e34:	8001fbc0 	call	8001fbc <MAXreg_wr>
                    usb_task_state = USB_ATTACHED_SUBSTATE_WAIT_RESET_COMPLETE;
 8002e38:	008004c4 	movi	r2,19
 8002e3c:	d0a01005 	stb	r2,-32704(gp)
                    break;//case( USB_ATTACHED_SUBSTATE_RESET_DEVICE )
 8002e40:	0000ba06 	br	800312c <USB_Task+0x46c>
                case( USB_ATTACHED_SUBSTATE_WAIT_RESET_COMPLETE ):                  //wait for bus reset and first SOF
                    if(( MAXreg_rd( rHCTL ) & bmBUSRST ) == 0 ) {
 8002e44:	01003a04 	movi	r4,232
 8002e48:	80021000 	call	8002100 <MAXreg_rd>
 8002e4c:	10803fcc 	andi	r2,r2,255
 8002e50:	1080004c 	andi	r2,r2,1
 8002e54:	1000b41e 	bne	r2,zero,8003128 <USB_Task+0x468>
                        tmpdata = MAXreg_rd( rMODE ) | bmSOFKAENAB;                 //start SOF generation
 8002e58:	01003604 	movi	r4,216
 8002e5c:	80021000 	call	8002100 <MAXreg_rd>
 8002e60:	10800214 	ori	r2,r2,8
 8002e64:	e0bfb945 	stb	r2,-283(fp)
                        MAXreg_wr( rMODE, tmpdata );
 8002e68:	e0bfb943 	ldbu	r2,-283(fp)
 8002e6c:	100b883a 	mov	r5,r2
 8002e70:	01003604 	movi	r4,216
 8002e74:	8001fbc0 	call	8001fbc <MAXreg_wr>
                        usb_task_state = USB_ATTACHED_SUBSTATE_WAIT_SOF;
 8002e78:	00800504 	movi	r2,20
 8002e7c:	d0a01005 	stb	r2,-32704(gp)
                    }
                    break;//case( USB_ATTACHED_SUBSTATE_WAIT_RESET_COMPLETE )
 8002e80:	0000a906 	br	8003128 <USB_Task+0x468>
                case( USB_ATTACHED_SUBSTATE_WAIT_SOF ):
                    if( MAXreg_rd( rHIRQ ) | bmFRAMEIRQ ) {                     //when first SOF received we can continue
 8002e84:	01003204 	movi	r4,200
 8002e88:	80021000 	call	8002100 <MAXreg_rd>
                        usb_task_state = USB_ATTACHED_SUBSTATE_GET_DEVICE_DESCRIPTOR_SIZE;
 8002e8c:	00800544 	movi	r2,21
 8002e90:	d0a01005 	stb	r2,-32704(gp)
                    }
                    break;//case( USB_ATTACHED_SUBSTATE_WAIT_SOF )
 8002e94:	0000a506 	br	800312c <USB_Task+0x46c>
                case( USB_ATTACHED_SUBSTATE_GET_DEVICE_DESCRIPTOR_SIZE ):   //send request for first 8 bytes of device descriptor
                    devtable[ 0 ].epinfo->MaxPktSize = 0x0008;             //fill max packet size with minimum allowed
 8002e98:	008200b4 	movhi	r2,2050
 8002e9c:	10a9cd04 	addi	r2,r2,-22732
 8002ea0:	10800017 	ldw	r2,0(r2)
 8002ea4:	00c00204 	movi	r3,8
 8002ea8:	10c0008d 	sth	r3,2(r2)
                	rcode = XferGetDevDescr( 0, 0, 8, (BYTE *)&buf );       //get device descriptor size
 8002eac:	e0bfba04 	addi	r2,fp,-280
 8002eb0:	d8800415 	stw	r2,16(sp)
 8002eb4:	00800204 	movi	r2,8
 8002eb8:	d8800315 	stw	r2,12(sp)
 8002ebc:	d8000215 	stw	zero,8(sp)
 8002ec0:	00800044 	movi	r2,1
 8002ec4:	d8800115 	stw	r2,4(sp)
 8002ec8:	d8000015 	stw	zero,0(sp)
 8002ecc:	01c00184 	movi	r7,6
 8002ed0:	01802004 	movi	r6,128
 8002ed4:	000b883a 	mov	r5,zero
 8002ed8:	0009883a 	mov	r4,zero
 8002edc:	80026740 	call	8002674 <XferCtrlReq>
 8002ee0:	e0bfb985 	stb	r2,-282(fp)
                    if( rcode == 0 ) {
 8002ee4:	e0bfb983 	ldbu	r2,-282(fp)
 8002ee8:	1000861e 	bne	r2,zero,8003104 <USB_Task+0x444>
                        devtable[ 0 ].epinfo->MaxPktSize = buf.bMaxPacketSize0;
 8002eec:	008200b4 	movhi	r2,2050
 8002ef0:	10a9cd04 	addi	r2,r2,-22732
 8002ef4:	10800017 	ldw	r2,0(r2)
 8002ef8:	e0ffbbc3 	ldbu	r3,-273(fp)
 8002efc:	18c03fcc 	andi	r3,r3,255
 8002f00:	10c0008d 	sth	r3,2(r2)

                        rcode = XferGetDevDescr( 0, 0, buf.bLength, (BYTE *)&buf );     //get full descriptor
 8002f04:	e0bfba03 	ldbu	r2,-280(fp)
 8002f08:	10803fcc 	andi	r2,r2,255
 8002f0c:	e0ffba04 	addi	r3,fp,-280
 8002f10:	d8c00415 	stw	r3,16(sp)
 8002f14:	d8800315 	stw	r2,12(sp)
 8002f18:	d8000215 	stw	zero,8(sp)
 8002f1c:	00800044 	movi	r2,1
 8002f20:	d8800115 	stw	r2,4(sp)
 8002f24:	d8000015 	stw	zero,0(sp)
 8002f28:	01c00184 	movi	r7,6
 8002f2c:	01802004 	movi	r6,128
 8002f30:	000b883a 	mov	r5,zero
 8002f34:	0009883a 	mov	r4,zero
 8002f38:	80026740 	call	8002674 <XferCtrlReq>
 8002f3c:	e0bfb985 	stb	r2,-282(fp)
                        //pull the string descriptor for the product if it exists
            			//hackish, store this somewhere
                        if (buf.iManufacturer != 0)
 8002f40:	e0bfbd83 	ldbu	r2,-266(fp)
 8002f44:	10803fcc 	andi	r2,r2,255
 8002f48:	10003426 	beq	r2,zero,800301c <USB_Task+0x35c>
                		{
                        	USB_STRING_DESCRIPTOR strDesc;
                			rcode = XferGetStrDescr( 0, 0, 2, buf.iManufacturer, LANG_EN_US, (BYTE *)&strDesc);
 8002f4c:	e0bfbd83 	ldbu	r2,-266(fp)
 8002f50:	10803fcc 	andi	r2,r2,255
 8002f54:	e0ffbe84 	addi	r3,fp,-262
 8002f58:	d8c00415 	stw	r3,16(sp)
 8002f5c:	00c00084 	movi	r3,2
 8002f60:	d8c00315 	stw	r3,12(sp)
 8002f64:	00c10244 	movi	r3,1033
 8002f68:	d8c00215 	stw	r3,8(sp)
 8002f6c:	00c000c4 	movi	r3,3
 8002f70:	d8c00115 	stw	r3,4(sp)
 8002f74:	d8800015 	stw	r2,0(sp)
 8002f78:	01c00184 	movi	r7,6
 8002f7c:	01802004 	movi	r6,128
 8002f80:	000b883a 	mov	r5,zero
 8002f84:	0009883a 	mov	r4,zero
 8002f88:	80026740 	call	8002674 <XferCtrlReq>
 8002f8c:	e0bfb985 	stb	r2,-282(fp)
                			rcode = XferGetStrDescr( 0, 0, strDesc.bLength, buf.iManufacturer, LANG_EN_US, (BYTE *)&strDesc);
 8002f90:	e0bfbd83 	ldbu	r2,-266(fp)
 8002f94:	10803fcc 	andi	r2,r2,255
 8002f98:	e0ffbe83 	ldbu	r3,-262(fp)
 8002f9c:	18c03fcc 	andi	r3,r3,255
 8002fa0:	e13fbe84 	addi	r4,fp,-262
 8002fa4:	d9000415 	stw	r4,16(sp)
 8002fa8:	d8c00315 	stw	r3,12(sp)
 8002fac:	00c10244 	movi	r3,1033
 8002fb0:	d8c00215 	stw	r3,8(sp)
 8002fb4:	00c000c4 	movi	r3,3
 8002fb8:	d8c00115 	stw	r3,4(sp)
 8002fbc:	d8800015 	stw	r2,0(sp)
 8002fc0:	01c00184 	movi	r7,6
 8002fc4:	01802004 	movi	r6,128
 8002fc8:	000b883a 	mov	r5,zero
 8002fcc:	0009883a 	mov	r4,zero
 8002fd0:	80026740 	call	8002674 <XferCtrlReq>
 8002fd4:	e0bfb985 	stb	r2,-282(fp)
                			printf ("Mfgr string(%i): %s\n", buf.iManufacturer, ConvUTF8ToStr(strDesc.bString, (strDesc.bLength>>1)-1));
 8002fd8:	e0bfbd83 	ldbu	r2,-266(fp)
 8002fdc:	14003fcc 	andi	r16,r2,255
 8002fe0:	e0bfbe83 	ldbu	r2,-262(fp)
 8002fe4:	10803fcc 	andi	r2,r2,255
 8002fe8:	1004d07a 	srli	r2,r2,1
 8002fec:	10bfffc4 	addi	r2,r2,-1
 8002ff0:	10c03fcc 	andi	r3,r2,255
 8002ff4:	e0bfbe84 	addi	r2,fp,-262
 8002ff8:	10800084 	addi	r2,r2,2
 8002ffc:	180b883a 	mov	r5,r3
 8003000:	1009883a 	mov	r4,r2
 8003004:	80034880 	call	8003488 <ConvUTF8ToStr>
 8003008:	100d883a 	mov	r6,r2
 800300c:	800b883a 	mov	r5,r16
 8003010:	01020074 	movhi	r4,2049
 8003014:	211adf04 	addi	r4,r4,27516
 8003018:	800939c0 	call	800939c <printf>
                		}
                		if (buf.iProduct != 0)
 800301c:	e0bfbdc3 	ldbu	r2,-265(fp)
 8003020:	10803fcc 	andi	r2,r2,255
 8003024:	10003426 	beq	r2,zero,80030f8 <USB_Task+0x438>
                		{
                        	USB_STRING_DESCRIPTOR strDesc;
                        	rcode = XferGetStrDescr( 0, 0, 2, buf.iProduct, LANG_EN_US, (BYTE *)&strDesc);
 8003028:	e0bfbdc3 	ldbu	r2,-265(fp)
 800302c:	10803fcc 	andi	r2,r2,255
 8003030:	e0ffbe84 	addi	r3,fp,-262
 8003034:	d8c00415 	stw	r3,16(sp)
 8003038:	00c00084 	movi	r3,2
 800303c:	d8c00315 	stw	r3,12(sp)
 8003040:	00c10244 	movi	r3,1033
 8003044:	d8c00215 	stw	r3,8(sp)
 8003048:	00c000c4 	movi	r3,3
 800304c:	d8c00115 	stw	r3,4(sp)
 8003050:	d8800015 	stw	r2,0(sp)
 8003054:	01c00184 	movi	r7,6
 8003058:	01802004 	movi	r6,128
 800305c:	000b883a 	mov	r5,zero
 8003060:	0009883a 	mov	r4,zero
 8003064:	80026740 	call	8002674 <XferCtrlReq>
 8003068:	e0bfb985 	stb	r2,-282(fp)
                			rcode = XferGetStrDescr( 0, 0, strDesc.bLength, buf.iProduct, LANG_EN_US, (BYTE *)&strDesc);
 800306c:	e0bfbdc3 	ldbu	r2,-265(fp)
 8003070:	10803fcc 	andi	r2,r2,255
 8003074:	e0ffbe83 	ldbu	r3,-262(fp)
 8003078:	18c03fcc 	andi	r3,r3,255
 800307c:	e13fbe84 	addi	r4,fp,-262
 8003080:	d9000415 	stw	r4,16(sp)
 8003084:	d8c00315 	stw	r3,12(sp)
 8003088:	00c10244 	movi	r3,1033
 800308c:	d8c00215 	stw	r3,8(sp)
 8003090:	00c000c4 	movi	r3,3
 8003094:	d8c00115 	stw	r3,4(sp)
 8003098:	d8800015 	stw	r2,0(sp)
 800309c:	01c00184 	movi	r7,6
 80030a0:	01802004 	movi	r6,128
 80030a4:	000b883a 	mov	r5,zero
 80030a8:	0009883a 	mov	r4,zero
 80030ac:	80026740 	call	8002674 <XferCtrlReq>
 80030b0:	e0bfb985 	stb	r2,-282(fp)
                			printf ("Product string(%i): %s\n", buf.iProduct, ConvUTF8ToStr(strDesc.bString, (strDesc.bLength>>1)-1));
 80030b4:	e0bfbdc3 	ldbu	r2,-265(fp)
 80030b8:	14003fcc 	andi	r16,r2,255
 80030bc:	e0bfbe83 	ldbu	r2,-262(fp)
 80030c0:	10803fcc 	andi	r2,r2,255
 80030c4:	1004d07a 	srli	r2,r2,1
 80030c8:	10bfffc4 	addi	r2,r2,-1
 80030cc:	10c03fcc 	andi	r3,r2,255
 80030d0:	e0bfbe84 	addi	r2,fp,-262
 80030d4:	10800084 	addi	r2,r2,2
 80030d8:	180b883a 	mov	r5,r3
 80030dc:	1009883a 	mov	r4,r2
 80030e0:	80034880 	call	8003488 <ConvUTF8ToStr>
 80030e4:	100d883a 	mov	r6,r2
 80030e8:	800b883a 	mov	r5,r16
 80030ec:	01020074 	movhi	r4,2049
 80030f0:	211ae504 	addi	r4,r4,27540
 80030f4:	800939c0 	call	800939c <printf>
                		}
                        usb_task_state = USB_STATE_ADDRESSING;
 80030f8:	00800804 	movi	r2,32
 80030fc:	d0a01005 	stb	r2,-32704(gp)
                    else {
                        usb_error = rcode;
                        last_usb_task_state = usb_task_state;
                        usb_task_state = USB_STATE_ERROR;
                    }
                    break;//case( USB_ATTACHED_SUBSTATE_GET_DEVICE_DESCRIPTOR_SIZE ):
 8003100:	00000a06 	br	800312c <USB_Task+0x46c>
                		}
                        usb_task_state = USB_STATE_ADDRESSING;

                    }
                    else {
                        usb_error = rcode;
 8003104:	e0bfb983 	ldbu	r2,-282(fp)
 8003108:	d0a70145 	stb	r2,-25595(gp)
                        last_usb_task_state = usb_task_state;
 800310c:	d0a01003 	ldbu	r2,-32704(gp)
 8003110:	d0a6ff05 	stb	r2,-25604(gp)
                        usb_task_state = USB_STATE_ERROR;
 8003114:	00bfffc4 	movi	r2,-1
 8003118:	d0a01005 	stb	r2,-32704(gp)
                    }
                    break;//case( USB_ATTACHED_SUBSTATE_GET_DEVICE_DESCRIPTOR_SIZE ):
 800311c:	00000306 	br	800312c <USB_Task+0x46c>
                    break;//case( USB_STATE_ATTACHED )
                case( USB_ATTACHED_SUBSTATE_SETTLE ):   //waiting for settle timer to expire
                    if( (alt_nticks()*1000)/alt_ticks_per_second() > usb_delay ) {
                        usb_task_state = USB_ATTACHED_SUBSTATE_RESET_DEVICE;
                    }
                    break;//case( USB_ATTACHED_SUBSTATE_SETTLE )
 8003120:	0001883a 	nop
 8003124:	00006b06 	br	80032d4 <USB_Task+0x614>
                    if(( MAXreg_rd( rHCTL ) & bmBUSRST ) == 0 ) {
                        tmpdata = MAXreg_rd( rMODE ) | bmSOFKAENAB;                 //start SOF generation
                        MAXreg_wr( rMODE, tmpdata );
                        usb_task_state = USB_ATTACHED_SUBSTATE_WAIT_SOF;
                    }
                    break;//case( USB_ATTACHED_SUBSTATE_WAIT_RESET_COMPLETE )
 8003128:	0001883a 	nop
                        last_usb_task_state = usb_task_state;
                        usb_task_state = USB_STATE_ERROR;
                    }
                    break;//case( USB_ATTACHED_SUBSTATE_GET_DEVICE_DESCRIPTOR_SIZE ):
            }//switch( usb_task_state )
            break;//case ( USB_STATE_ATTACHED )
 800312c:	00006906 	br	80032d4 <USB_Task+0x614>
        case( USB_STATE_ADDRESSING ):   //give device an address
            for( i = 1; i < USB_NUMDEVICES; i++ ) {
 8003130:	00800044 	movi	r2,1
 8003134:	e0bfb905 	stb	r2,-284(fp)
 8003138:	00002d06 	br	80031f0 <USB_Task+0x530>
                if( devtable[ i ].epinfo == NULL ) {
 800313c:	e0ffb903 	ldbu	r3,-284(fp)
 8003140:	008200b4 	movhi	r2,2050
 8003144:	10a9cd04 	addi	r2,r2,-22732
 8003148:	180690fa 	slli	r3,r3,3
 800314c:	10c5883a 	add	r2,r2,r3
 8003150:	10800017 	ldw	r2,0(r2)
 8003154:	1000231e 	bne	r2,zero,80031e4 <USB_Task+0x524>
                    devtable[ i ].epinfo = devtable[ 0 ].epinfo;        //set correct MaxPktSize
 8003158:	e13fb903 	ldbu	r4,-284(fp)
 800315c:	008200b4 	movhi	r2,2050
 8003160:	10a9cd04 	addi	r2,r2,-22732
 8003164:	10c00017 	ldw	r3,0(r2)
 8003168:	008200b4 	movhi	r2,2050
 800316c:	10a9cd04 	addi	r2,r2,-22732
 8003170:	200890fa 	slli	r4,r4,3
 8003174:	1105883a 	add	r2,r2,r4
 8003178:	10c00015 	stw	r3,0(r2)
                    //devtable[ i ].epinfo->MaxPktSize = devtable[ 0 ].epinfo->MaxPktSize;  //copy uninitialized device record to have correct MaxPktSize
                    rcode = XferSetAddr( 0, 0, i );
 800317c:	e0bfb903 	ldbu	r2,-284(fp)
 8003180:	d8000415 	stw	zero,16(sp)
 8003184:	d8000315 	stw	zero,12(sp)
 8003188:	d8000215 	stw	zero,8(sp)
 800318c:	d8000115 	stw	zero,4(sp)
 8003190:	d8800015 	stw	r2,0(sp)
 8003194:	01c00144 	movi	r7,5
 8003198:	000d883a 	mov	r6,zero
 800319c:	000b883a 	mov	r5,zero
 80031a0:	0009883a 	mov	r4,zero
 80031a4:	80026740 	call	8002674 <XferCtrlReq>
 80031a8:	e0bfb985 	stb	r2,-282(fp)
                    if( rcode == 0 ) {
 80031ac:	e0bfb983 	ldbu	r2,-282(fp)
 80031b0:	1000051e 	bne	r2,zero,80031c8 <USB_Task+0x508>
                        tmp_addr = i;
 80031b4:	e0bfb903 	ldbu	r2,-284(fp)
 80031b8:	d0a70105 	stb	r2,-25596(gp)
                        usb_task_state = USB_STATE_CONFIGURING;
 80031bc:	00800c04 	movi	r2,48
 80031c0:	d0a01005 	stb	r2,-32704(gp)
                    else {
                        usb_error = rcode;          //set address error
                        last_usb_task_state = usb_task_state;
                        usb_task_state = USB_STATE_ERROR;
                    }
                    break;  //break if address assigned or error occurred during address assignment attempt
 80031c4:	00000d06 	br	80031fc <USB_Task+0x53c>
                    if( rcode == 0 ) {
                        tmp_addr = i;
                        usb_task_state = USB_STATE_CONFIGURING;
                    }
                    else {
                        usb_error = rcode;          //set address error
 80031c8:	e0bfb983 	ldbu	r2,-282(fp)
 80031cc:	d0a70145 	stb	r2,-25595(gp)
                        last_usb_task_state = usb_task_state;
 80031d0:	d0a01003 	ldbu	r2,-32704(gp)
 80031d4:	d0a6ff05 	stb	r2,-25604(gp)
                        usb_task_state = USB_STATE_ERROR;
 80031d8:	00bfffc4 	movi	r2,-1
 80031dc:	d0a01005 	stb	r2,-32704(gp)
                    }
                    break;  //break if address assigned or error occurred during address assignment attempt
 80031e0:	00000606 	br	80031fc <USB_Task+0x53c>
                    }
                    break;//case( USB_ATTACHED_SUBSTATE_GET_DEVICE_DESCRIPTOR_SIZE ):
            }//switch( usb_task_state )
            break;//case ( USB_STATE_ATTACHED )
        case( USB_STATE_ADDRESSING ):   //give device an address
            for( i = 1; i < USB_NUMDEVICES; i++ ) {
 80031e4:	e0bfb903 	ldbu	r2,-284(fp)
 80031e8:	10800044 	addi	r2,r2,1
 80031ec:	e0bfb905 	stb	r2,-284(fp)
 80031f0:	e0bfb903 	ldbu	r2,-284(fp)
 80031f4:	10800230 	cmpltui	r2,r2,8
 80031f8:	103fd01e 	bne	r2,zero,800313c <__alt_data_end+0xfc00313c>
                        usb_task_state = USB_STATE_ERROR;
                    }
                    break;  //break if address assigned or error occurred during address assignment attempt
                }
            }
            if( usb_task_state == USB_STATE_ADDRESSING ) {
 80031fc:	d0a01003 	ldbu	r2,-32704(gp)
 8003200:	10803fcc 	andi	r2,r2,255
 8003204:	10800818 	cmpnei	r2,r2,32
 8003208:	1000341e 	bne	r2,zero,80032dc <USB_Task+0x61c>
                usb_error = 0xfe;
 800320c:	00bfff84 	movi	r2,-2
 8003210:	d0a70145 	stb	r2,-25595(gp)
                last_usb_task_state = usb_task_state;
 8003214:	d0a01003 	ldbu	r2,-32704(gp)
 8003218:	d0a6ff05 	stb	r2,-25604(gp)
                usb_task_state = USB_STATE_ERROR;
 800321c:	00bfffc4 	movi	r2,-1
 8003220:	d0a01005 	stb	r2,-32704(gp)
            }
            break;//case ( USB_STATE_ADDRESSING )
 8003224:	00002d06 	br	80032dc <USB_Task+0x61c>
        case( USB_STATE_CONFIGURING ):              //checking for driver
			//run device class probes until one returns TRUE
            for( i = 0; i < USB_NUMCLASSES; i++ ) {
 8003228:	e03fb905 	stb	zero,-284(fp)
 800322c:	00001706 	br	800328c <USB_Task+0x5cc>
                rcode = ClientDriverTable[ i ].Initialize( tmp_addr, 0 );
 8003230:	e0bfb903 	ldbu	r2,-284(fp)
 8003234:	04020074 	movhi	r16,2049
 8003238:	841bb204 	addi	r16,r16,28360
 800323c:	01400304 	movi	r5,12
 8003240:	1009883a 	mov	r4,r2
 8003244:	800543c0 	call	800543c <__mulsi3>
 8003248:	8085883a 	add	r2,r16,r2
 800324c:	10800017 	ldw	r2,0(r2)
 8003250:	d0e70103 	ldbu	r3,-25596(gp)
 8003254:	18c03fcc 	andi	r3,r3,255
 8003258:	000b883a 	mov	r5,zero
 800325c:	1809883a 	mov	r4,r3
 8003260:	103ee83a 	callr	r2
 8003264:	e0bfb985 	stb	r2,-282(fp)
                if( rcode == TRUE ) {
 8003268:	e0bfb983 	ldbu	r2,-282(fp)
 800326c:	10800058 	cmpnei	r2,r2,1
 8003270:	1000031e 	bne	r2,zero,8003280 <USB_Task+0x5c0>
			        usb_task_state = USB_STATE_RUNNING;
 8003274:	00801004 	movi	r2,64
 8003278:	d0a01005 	stb	r2,-32704(gp)
                    break;
 800327c:	00000606 	br	8003298 <USB_Task+0x5d8>
                usb_task_state = USB_STATE_ERROR;
            }
            break;//case ( USB_STATE_ADDRESSING )
        case( USB_STATE_CONFIGURING ):              //checking for driver
			//run device class probes until one returns TRUE
            for( i = 0; i < USB_NUMCLASSES; i++ ) {
 8003280:	e0bfb903 	ldbu	r2,-284(fp)
 8003284:	10800044 	addi	r2,r2,1
 8003288:	e0bfb905 	stb	r2,-284(fp)
 800328c:	e0bfb903 	ldbu	r2,-284(fp)
 8003290:	10800130 	cmpltui	r2,r2,4
 8003294:	103fe61e 	bne	r2,zero,8003230 <__alt_data_end+0xfc003230>
                if( rcode == TRUE ) {
			        usb_task_state = USB_STATE_RUNNING;
                    break;
                }
            }
            if( usb_task_state == USB_STATE_CONFIGURING ) {
 8003298:	d0a01003 	ldbu	r2,-32704(gp)
 800329c:	10803fcc 	andi	r2,r2,255
 80032a0:	10800c18 	cmpnei	r2,r2,48
 80032a4:	10000f1e 	bne	r2,zero,80032e4 <USB_Task+0x624>
                usb_error = 0xfd;
 80032a8:	00bfff44 	movi	r2,-3
 80032ac:	d0a70145 	stb	r2,-25595(gp)
                last_usb_task_state = usb_task_state;
 80032b0:	d0a01003 	ldbu	r2,-32704(gp)
 80032b4:	d0a6ff05 	stb	r2,-25604(gp)
                usb_task_state = USB_STATE_ERROR;
 80032b8:	00bfffc4 	movi	r2,-1
 80032bc:	d0a01005 	stb	r2,-32704(gp)
            }
            break;//( USB_STATE_CONFIGURING )
 80032c0:	00000806 	br	80032e4 <USB_Task+0x624>
        case( USB_STATE_RUNNING ):
          //vTaskDelay( LED_RATE );
            break;//( USB_STATE_RUNNING )
 80032c4:	0001883a 	nop
 80032c8:	00000706 	br	80032e8 <USB_Task+0x628>
        case( USB_STATE_ERROR ):
            //vTaskDelay( LED_RATE ); //stay here if error
            break;//( USB_STATE_ERROR )
 80032cc:	0001883a 	nop
 80032d0:	00000506 	br	80032e8 <USB_Task+0x628>
                        last_usb_task_state = usb_task_state;
                        usb_task_state = USB_STATE_ERROR;
                    }
                    break;//case( USB_ATTACHED_SUBSTATE_GET_DEVICE_DESCRIPTOR_SIZE ):
            }//switch( usb_task_state )
            break;//case ( USB_STATE_ATTACHED )
 80032d4:	0001883a 	nop
 80032d8:	00000306 	br	80032e8 <USB_Task+0x628>
            if( usb_task_state == USB_STATE_ADDRESSING ) {
                usb_error = 0xfe;
                last_usb_task_state = usb_task_state;
                usb_task_state = USB_STATE_ERROR;
            }
            break;//case ( USB_STATE_ADDRESSING )
 80032dc:	0001883a 	nop
 80032e0:	00000106 	br	80032e8 <USB_Task+0x628>
            if( usb_task_state == USB_STATE_CONFIGURING ) {
                usb_error = 0xfd;
                last_usb_task_state = usb_task_state;
                usb_task_state = USB_STATE_ERROR;
            }
            break;//( USB_STATE_CONFIGURING )
 80032e4:	0001883a 	nop
            break;//( USB_STATE_ERROR )
        default:
            //Should never get here
            break;
    }//switch( usb_task_state & STATE_MASK )
}
 80032e8:	0001883a 	nop
 80032ec:	e6ffff04 	addi	sp,fp,-4
 80032f0:	dfc00217 	ldw	ra,8(sp)
 80032f4:	df000117 	ldw	fp,4(sp)
 80032f8:	dc000017 	ldw	r16,0(sp)
 80032fc:	dec00304 	addi	sp,sp,12
 8003300:	f800283a 	ret

08003304 <MSDProbe>:

//place-holders for MSD (mass-storage device) drivers, we don't have them ported.
//returns TRUE if device is successfully identified and configured, otherwise returns FALSE
BOOL MSDProbe( BYTE addr, DWORD flags )
{
 8003304:	defffd04 	addi	sp,sp,-12
 8003308:	df000215 	stw	fp,8(sp)
 800330c:	df000204 	addi	fp,sp,8
 8003310:	2005883a 	mov	r2,r4
 8003314:	e17fff15 	stw	r5,-4(fp)
 8003318:	e0bffe05 	stb	r2,-8(fp)
    return( FALSE );
 800331c:	0005883a 	mov	r2,zero
}
 8003320:	e037883a 	mov	sp,fp
 8003324:	df000017 	ldw	fp,0(sp)
 8003328:	dec00104 	addi	sp,sp,4
 800332c:	f800283a 	ret

08003330 <MSDEventHandler>:

BOOL MSDEventHandler( BYTE address, BYTE event, void *data, DWORD size )
{
 8003330:	defffb04 	addi	sp,sp,-20
 8003334:	df000415 	stw	fp,16(sp)
 8003338:	df000404 	addi	fp,sp,16
 800333c:	2007883a 	mov	r3,r4
 8003340:	2805883a 	mov	r2,r5
 8003344:	e1bffe15 	stw	r6,-8(fp)
 8003348:	e1ffff15 	stw	r7,-4(fp)
 800334c:	e0fffc05 	stb	r3,-16(fp)
 8003350:	e0bffd05 	stb	r2,-12(fp)

	return( FALSE );
 8003354:	0005883a 	mov	r2,zero

}
 8003358:	e037883a 	mov	sp,fp
 800335c:	df000017 	ldw	fp,0(sp)
 8003360:	dec00104 	addi	sp,sp,4
 8003364:	f800283a 	ret

08003368 <CDCProbe>:
//CDC (communication device class also not supported)
BOOL CDCProbe( BYTE address, DWORD flags )
{
 8003368:	defffd04 	addi	sp,sp,-12
 800336c:	df000215 	stw	fp,8(sp)
 8003370:	df000204 	addi	fp,sp,8
 8003374:	2005883a 	mov	r2,r4
 8003378:	e17fff15 	stw	r5,-4(fp)
 800337c:	e0bffe05 	stb	r2,-8(fp)

	return( FALSE );
 8003380:	0005883a 	mov	r2,zero

}
 8003384:	e037883a 	mov	sp,fp
 8003388:	df000017 	ldw	fp,0(sp)
 800338c:	dec00104 	addi	sp,sp,4
 8003390:	f800283a 	ret

08003394 <CDCEventHandler>:

BOOL CDCEventHandler( BYTE address, BYTE event, void *data, DWORD size )
{
 8003394:	defffb04 	addi	sp,sp,-20
 8003398:	df000415 	stw	fp,16(sp)
 800339c:	df000404 	addi	fp,sp,16
 80033a0:	2007883a 	mov	r3,r4
 80033a4:	2805883a 	mov	r2,r5
 80033a8:	e1bffe15 	stw	r6,-8(fp)
 80033ac:	e1ffff15 	stw	r7,-4(fp)
 80033b0:	e0fffc05 	stb	r3,-16(fp)
 80033b4:	e0bffd05 	stb	r2,-12(fp)
	return( FALSE );
 80033b8:	0005883a 	mov	r2,zero
}
 80033bc:	e037883a 	mov	sp,fp
 80033c0:	df000017 	ldw	fp,0(sp)
 80033c4:	dec00104 	addi	sp,sp,4
 80033c8:	f800283a 	ret

080033cc <DummyProbe>:

BOOL DummyProbe( BYTE address , DWORD flags )
{
 80033cc:	defffd04 	addi	sp,sp,-12
 80033d0:	df000215 	stw	fp,8(sp)
 80033d4:	df000204 	addi	fp,sp,8
 80033d8:	2005883a 	mov	r2,r4
 80033dc:	e17fff15 	stw	r5,-4(fp)
 80033e0:	e0bffe05 	stb	r2,-8(fp)
	return( FALSE );
 80033e4:	0005883a 	mov	r2,zero
}
 80033e8:	e037883a 	mov	sp,fp
 80033ec:	df000017 	ldw	fp,0(sp)
 80033f0:	dec00104 	addi	sp,sp,4
 80033f4:	f800283a 	ret

080033f8 <DummyEventHandler>:

BOOL DummyEventHandler( BYTE address, BYTE event, void *data, DWORD size )
{
 80033f8:	defffb04 	addi	sp,sp,-20
 80033fc:	df000415 	stw	fp,16(sp)
 8003400:	df000404 	addi	fp,sp,16
 8003404:	2007883a 	mov	r3,r4
 8003408:	2805883a 	mov	r2,r5
 800340c:	e1bffe15 	stw	r6,-8(fp)
 8003410:	e1ffff15 	stw	r7,-4(fp)
 8003414:	e0fffc05 	stb	r3,-16(fp)
 8003418:	e0bffd05 	stb	r2,-12(fp)
	return( FALSE );
 800341c:	0005883a 	mov	r2,zero
}
 8003420:	e037883a 	mov	sp,fp
 8003424:	df000017 	ldw	fp,0(sp)
 8003428:	dec00104 	addi	sp,sp,4
 800342c:	f800283a 	ret

08003430 <GetUsbTaskState>:
/* Function to access usb_task_state variable from outside */
BYTE GetUsbTaskState( void )
{
 8003430:	deffff04 	addi	sp,sp,-4
 8003434:	df000015 	stw	fp,0(sp)
 8003438:	d839883a 	mov	fp,sp
    return( usb_task_state );
 800343c:	d0a01003 	ldbu	r2,-32704(gp)
}
 8003440:	e037883a 	mov	sp,fp
 8003444:	df000017 	ldw	fp,0(sp)
 8003448:	dec00104 	addi	sp,sp,4
 800344c:	f800283a 	ret

08003450 <GetDevtable>:
/* Function to access devtable[] from outside */
DEV_RECORD* GetDevtable( BYTE index )
{
 8003450:	defffe04 	addi	sp,sp,-8
 8003454:	df000115 	stw	fp,4(sp)
 8003458:	df000104 	addi	fp,sp,4
 800345c:	2005883a 	mov	r2,r4
 8003460:	e0bfff05 	stb	r2,-4(fp)
    return( &devtable[ index ] );
 8003464:	e0bfff03 	ldbu	r2,-4(fp)
 8003468:	100690fa 	slli	r3,r2,3
 800346c:	008200b4 	movhi	r2,2050
 8003470:	10a9cd04 	addi	r2,r2,-22732
 8003474:	1885883a 	add	r2,r3,r2
}
 8003478:	e037883a 	mov	sp,fp
 800347c:	df000017 	ldw	fp,0(sp)
 8003480:	dec00104 	addi	sp,sp,4
 8003484:	f800283a 	ret

08003488 <ConvUTF8ToStr>:

char* ConvUTF8ToStr(BYTE* utf8, BYTE length)
{
 8003488:	defffc04 	addi	sp,sp,-16
 800348c:	df000315 	stw	fp,12(sp)
 8003490:	df000304 	addi	fp,sp,12
 8003494:	e13ffe15 	stw	r4,-8(fp)
 8003498:	2805883a 	mov	r2,r5
 800349c:	e0bfff05 	stb	r2,-4(fp)
	BYTE i;
	for (i = 0; i < length; i++)
 80034a0:	e03ffd05 	stb	zero,-12(fp)
 80034a4:	00000d06 	br	80034dc <ConvUTF8ToStr+0x54>
	{
		utf8[i] = utf8[2*i];
 80034a8:	e0bffd03 	ldbu	r2,-12(fp)
 80034ac:	e0fffe17 	ldw	r3,-8(fp)
 80034b0:	1887883a 	add	r3,r3,r2
 80034b4:	e0bffd03 	ldbu	r2,-12(fp)
 80034b8:	1085883a 	add	r2,r2,r2
 80034bc:	1009883a 	mov	r4,r2
 80034c0:	e0bffe17 	ldw	r2,-8(fp)
 80034c4:	1105883a 	add	r2,r2,r4
 80034c8:	10800003 	ldbu	r2,0(r2)
 80034cc:	18800005 	stb	r2,0(r3)
}

char* ConvUTF8ToStr(BYTE* utf8, BYTE length)
{
	BYTE i;
	for (i = 0; i < length; i++)
 80034d0:	e0bffd03 	ldbu	r2,-12(fp)
 80034d4:	10800044 	addi	r2,r2,1
 80034d8:	e0bffd05 	stb	r2,-12(fp)
 80034dc:	e0fffd03 	ldbu	r3,-12(fp)
 80034e0:	e0bfff03 	ldbu	r2,-4(fp)
 80034e4:	18bff036 	bltu	r3,r2,80034a8 <__alt_data_end+0xfc0034a8>
	{
		utf8[i] = utf8[2*i];
	}
	utf8[length] = 0x00;
 80034e8:	e0bfff03 	ldbu	r2,-4(fp)
 80034ec:	e0fffe17 	ldw	r3,-8(fp)
 80034f0:	1885883a 	add	r2,r3,r2
 80034f4:	10000005 	stb	zero,0(r2)
	return (char*)utf8;
 80034f8:	e0bffe17 	ldw	r2,-8(fp)
}
 80034fc:	e037883a 	mov	sp,fp
 8003500:	df000017 	ldw	fp,0(sp)
 8003504:	dec00104 	addi	sp,sp,4
 8003508:	f800283a 	ret

0800350c <pow>:
 800350c:	deffee04 	addi	sp,sp,-72
 8003510:	dc800b15 	stw	r18,44(sp)
 8003514:	048200b4 	movhi	r18,2050
 8003518:	ddc01015 	stw	r23,64(sp)
 800351c:	dd800f15 	stw	r22,60(sp)
 8003520:	dd400e15 	stw	r21,56(sp)
 8003524:	dd000d15 	stw	r20,52(sp)
 8003528:	dcc00c15 	stw	r19,48(sp)
 800352c:	dc400a15 	stw	r17,40(sp)
 8003530:	dc000915 	stw	r16,36(sp)
 8003534:	dfc01115 	stw	ra,68(sp)
 8003538:	94a27a04 	addi	r18,r18,-30232
 800353c:	202f883a 	mov	r23,r4
 8003540:	282d883a 	mov	r22,r5
 8003544:	302b883a 	mov	r21,r6
 8003548:	3829883a 	mov	r20,r7
 800354c:	8003b000 	call	8003b00 <__ieee754_pow>
 8003550:	1023883a 	mov	r17,r2
 8003554:	90800017 	ldw	r2,0(r18)
 8003558:	04ffffc4 	movi	r19,-1
 800355c:	1821883a 	mov	r16,r3
 8003560:	14c00426 	beq	r2,r19,8003574 <pow+0x68>
 8003564:	a809883a 	mov	r4,r21
 8003568:	a00b883a 	mov	r5,r20
 800356c:	8004e5c0 	call	8004e5c <__fpclassifyd>
 8003570:	10000d1e 	bne	r2,zero,80035a8 <pow+0x9c>
 8003574:	8805883a 	mov	r2,r17
 8003578:	8007883a 	mov	r3,r16
 800357c:	dfc01117 	ldw	ra,68(sp)
 8003580:	ddc01017 	ldw	r23,64(sp)
 8003584:	dd800f17 	ldw	r22,60(sp)
 8003588:	dd400e17 	ldw	r21,56(sp)
 800358c:	dd000d17 	ldw	r20,52(sp)
 8003590:	dcc00c17 	ldw	r19,48(sp)
 8003594:	dc800b17 	ldw	r18,44(sp)
 8003598:	dc400a17 	ldw	r17,40(sp)
 800359c:	dc000917 	ldw	r16,36(sp)
 80035a0:	dec01204 	addi	sp,sp,72
 80035a4:	f800283a 	ret
 80035a8:	b809883a 	mov	r4,r23
 80035ac:	b00b883a 	mov	r5,r22
 80035b0:	8004e5c0 	call	8004e5c <__fpclassifyd>
 80035b4:	000d883a 	mov	r6,zero
 80035b8:	000f883a 	mov	r7,zero
 80035bc:	1000201e 	bne	r2,zero,8003640 <pow+0x134>
 80035c0:	a809883a 	mov	r4,r21
 80035c4:	a00b883a 	mov	r5,r20
 80035c8:	8007ba40 	call	8007ba4 <__eqdf2>
 80035cc:	103fe91e 	bne	r2,zero,8003574 <__alt_data_end+0xfc003574>
 80035d0:	01000044 	movi	r4,1
 80035d4:	d9000015 	stw	r4,0(sp)
 80035d8:	90800017 	ldw	r2,0(r18)
 80035dc:	01020074 	movhi	r4,2049
 80035e0:	00cffc34 	movhi	r3,16368
 80035e4:	211aeb04 	addi	r4,r4,27564
 80035e8:	d9000115 	stw	r4,4(sp)
 80035ec:	d8000815 	stw	zero,32(sp)
 80035f0:	ddc00215 	stw	r23,8(sp)
 80035f4:	dd800315 	stw	r22,12(sp)
 80035f8:	dd400415 	stw	r21,16(sp)
 80035fc:	dd000515 	stw	r20,20(sp)
 8003600:	d8000615 	stw	zero,24(sp)
 8003604:	d8c00715 	stw	r3,28(sp)
 8003608:	14c02826 	beq	r2,r19,80036ac <pow+0x1a0>
 800360c:	01000084 	movi	r4,2
 8003610:	11002626 	beq	r2,r4,80036ac <pow+0x1a0>
 8003614:	d809883a 	mov	r4,sp
 8003618:	8004ed00 	call	8004ed0 <matherr>
 800361c:	10006b26 	beq	r2,zero,80037cc <pow+0x2c0>
 8003620:	d8800817 	ldw	r2,32(sp)
 8003624:	10000326 	beq	r2,zero,8003634 <pow+0x128>
 8003628:	800935c0 	call	800935c <__errno>
 800362c:	d8c00817 	ldw	r3,32(sp)
 8003630:	10c00015 	stw	r3,0(r2)
 8003634:	d8800617 	ldw	r2,24(sp)
 8003638:	d8c00717 	ldw	r3,28(sp)
 800363c:	003fcf06 	br	800357c <__alt_data_end+0xfc00357c>
 8003640:	b809883a 	mov	r4,r23
 8003644:	b00b883a 	mov	r5,r22
 8003648:	8007ba40 	call	8007ba4 <__eqdf2>
 800364c:	1000191e 	bne	r2,zero,80036b4 <pow+0x1a8>
 8003650:	000d883a 	mov	r6,zero
 8003654:	000f883a 	mov	r7,zero
 8003658:	a809883a 	mov	r4,r21
 800365c:	a00b883a 	mov	r5,r20
 8003660:	8007ba40 	call	8007ba4 <__eqdf2>
 8003664:	10003a1e 	bne	r2,zero,8003750 <pow+0x244>
 8003668:	00c00044 	movi	r3,1
 800366c:	d8c00015 	stw	r3,0(sp)
 8003670:	90800017 	ldw	r2,0(r18)
 8003674:	00c20074 	movhi	r3,2049
 8003678:	18daeb04 	addi	r3,r3,27564
 800367c:	d8c00115 	stw	r3,4(sp)
 8003680:	d8000815 	stw	zero,32(sp)
 8003684:	ddc00215 	stw	r23,8(sp)
 8003688:	dd800315 	stw	r22,12(sp)
 800368c:	dd400415 	stw	r21,16(sp)
 8003690:	dd000515 	stw	r20,20(sp)
 8003694:	d8000615 	stw	zero,24(sp)
 8003698:	d8000715 	stw	zero,28(sp)
 800369c:	103fdd26 	beq	r2,zero,8003614 <__alt_data_end+0xfc003614>
 80036a0:	0005883a 	mov	r2,zero
 80036a4:	00cffc34 	movhi	r3,16368
 80036a8:	003fb406 	br	800357c <__alt_data_end+0xfc00357c>
 80036ac:	0005883a 	mov	r2,zero
 80036b0:	003fb206 	br	800357c <__alt_data_end+0xfc00357c>
 80036b4:	8809883a 	mov	r4,r17
 80036b8:	800b883a 	mov	r5,r16
 80036bc:	8004e400 	call	8004e40 <finite>
 80036c0:	10004626 	beq	r2,zero,80037dc <pow+0x2d0>
 80036c4:	000d883a 	mov	r6,zero
 80036c8:	000f883a 	mov	r7,zero
 80036cc:	8809883a 	mov	r4,r17
 80036d0:	800b883a 	mov	r5,r16
 80036d4:	8007ba40 	call	8007ba4 <__eqdf2>
 80036d8:	103fa61e 	bne	r2,zero,8003574 <__alt_data_end+0xfc003574>
 80036dc:	b809883a 	mov	r4,r23
 80036e0:	b00b883a 	mov	r5,r22
 80036e4:	8004e400 	call	8004e40 <finite>
 80036e8:	103fa226 	beq	r2,zero,8003574 <__alt_data_end+0xfc003574>
 80036ec:	a809883a 	mov	r4,r21
 80036f0:	a00b883a 	mov	r5,r20
 80036f4:	8004e400 	call	8004e40 <finite>
 80036f8:	103f9e26 	beq	r2,zero,8003574 <__alt_data_end+0xfc003574>
 80036fc:	00800104 	movi	r2,4
 8003700:	d8800015 	stw	r2,0(sp)
 8003704:	90c00017 	ldw	r3,0(r18)
 8003708:	00820074 	movhi	r2,2049
 800370c:	109aeb04 	addi	r2,r2,27564
 8003710:	d8800115 	stw	r2,4(sp)
 8003714:	d8000815 	stw	zero,32(sp)
 8003718:	ddc00215 	stw	r23,8(sp)
 800371c:	dd800315 	stw	r22,12(sp)
 8003720:	dd400415 	stw	r21,16(sp)
 8003724:	dd000515 	stw	r20,20(sp)
 8003728:	d8000615 	stw	zero,24(sp)
 800372c:	d8000715 	stw	zero,28(sp)
 8003730:	00800084 	movi	r2,2
 8003734:	18804726 	beq	r3,r2,8003854 <pow+0x348>
 8003738:	d809883a 	mov	r4,sp
 800373c:	8004ed00 	call	8004ed0 <matherr>
 8003740:	10004426 	beq	r2,zero,8003854 <pow+0x348>
 8003744:	d8800817 	ldw	r2,32(sp)
 8003748:	103fba26 	beq	r2,zero,8003634 <__alt_data_end+0xfc003634>
 800374c:	003fb606 	br	8003628 <__alt_data_end+0xfc003628>
 8003750:	a809883a 	mov	r4,r21
 8003754:	a00b883a 	mov	r5,r20
 8003758:	8004e400 	call	8004e40 <finite>
 800375c:	103f8526 	beq	r2,zero,8003574 <__alt_data_end+0xfc003574>
 8003760:	000d883a 	mov	r6,zero
 8003764:	000f883a 	mov	r7,zero
 8003768:	a809883a 	mov	r4,r21
 800376c:	a00b883a 	mov	r5,r20
 8003770:	8007d080 	call	8007d08 <__ledf2>
 8003774:	103f7f0e 	bge	r2,zero,8003574 <__alt_data_end+0xfc003574>
 8003778:	00c00044 	movi	r3,1
 800377c:	d8c00015 	stw	r3,0(sp)
 8003780:	90800017 	ldw	r2,0(r18)
 8003784:	00c20074 	movhi	r3,2049
 8003788:	18daeb04 	addi	r3,r3,27564
 800378c:	d8c00115 	stw	r3,4(sp)
 8003790:	d8000815 	stw	zero,32(sp)
 8003794:	ddc00215 	stw	r23,8(sp)
 8003798:	dd800315 	stw	r22,12(sp)
 800379c:	dd400415 	stw	r21,16(sp)
 80037a0:	dd000515 	stw	r20,20(sp)
 80037a4:	d8000615 	stw	zero,24(sp)
 80037a8:	10002526 	beq	r2,zero,8003840 <pow+0x334>
 80037ac:	00fffc34 	movhi	r3,65520
 80037b0:	d8c00715 	stw	r3,28(sp)
 80037b4:	00c00084 	movi	r3,2
 80037b8:	10c0221e 	bne	r2,r3,8003844 <pow+0x338>
 80037bc:	800935c0 	call	800935c <__errno>
 80037c0:	00c00844 	movi	r3,33
 80037c4:	10c00015 	stw	r3,0(r2)
 80037c8:	003fde06 	br	8003744 <__alt_data_end+0xfc003744>
 80037cc:	800935c0 	call	800935c <__errno>
 80037d0:	00c00844 	movi	r3,33
 80037d4:	10c00015 	stw	r3,0(r2)
 80037d8:	003f9106 	br	8003620 <__alt_data_end+0xfc003620>
 80037dc:	b809883a 	mov	r4,r23
 80037e0:	b00b883a 	mov	r5,r22
 80037e4:	8004e400 	call	8004e40 <finite>
 80037e8:	103fb626 	beq	r2,zero,80036c4 <__alt_data_end+0xfc0036c4>
 80037ec:	a809883a 	mov	r4,r21
 80037f0:	a00b883a 	mov	r5,r20
 80037f4:	8004e400 	call	8004e40 <finite>
 80037f8:	103fb226 	beq	r2,zero,80036c4 <__alt_data_end+0xfc0036c4>
 80037fc:	8809883a 	mov	r4,r17
 8003800:	800b883a 	mov	r5,r16
 8003804:	8004e5c0 	call	8004e5c <__fpclassifyd>
 8003808:	1000161e 	bne	r2,zero,8003864 <pow+0x358>
 800380c:	00800044 	movi	r2,1
 8003810:	d8800015 	stw	r2,0(sp)
 8003814:	94000017 	ldw	r16,0(r18)
 8003818:	00820074 	movhi	r2,2049
 800381c:	109aeb04 	addi	r2,r2,27564
 8003820:	d8800115 	stw	r2,4(sp)
 8003824:	d8000815 	stw	zero,32(sp)
 8003828:	ddc00215 	stw	r23,8(sp)
 800382c:	dd800315 	stw	r22,12(sp)
 8003830:	dd400415 	stw	r21,16(sp)
 8003834:	dd000515 	stw	r20,20(sp)
 8003838:	8000281e 	bne	r16,zero,80038dc <pow+0x3d0>
 800383c:	d8000615 	stw	zero,24(sp)
 8003840:	d8000715 	stw	zero,28(sp)
 8003844:	d809883a 	mov	r4,sp
 8003848:	8004ed00 	call	8004ed0 <matherr>
 800384c:	103fbd1e 	bne	r2,zero,8003744 <__alt_data_end+0xfc003744>
 8003850:	003fda06 	br	80037bc <__alt_data_end+0xfc0037bc>
 8003854:	800935c0 	call	800935c <__errno>
 8003858:	00c00884 	movi	r3,34
 800385c:	10c00015 	stw	r3,0(r2)
 8003860:	003fb806 	br	8003744 <__alt_data_end+0xfc003744>
 8003864:	00c000c4 	movi	r3,3
 8003868:	d8c00015 	stw	r3,0(sp)
 800386c:	90800017 	ldw	r2,0(r18)
 8003870:	00c20074 	movhi	r3,2049
 8003874:	18daeb04 	addi	r3,r3,27564
 8003878:	d8c00115 	stw	r3,4(sp)
 800387c:	d8000815 	stw	zero,32(sp)
 8003880:	ddc00215 	stw	r23,8(sp)
 8003884:	dd800315 	stw	r22,12(sp)
 8003888:	dd400415 	stw	r21,16(sp)
 800388c:	dd000515 	stw	r20,20(sp)
 8003890:	000d883a 	mov	r6,zero
 8003894:	000f883a 	mov	r7,zero
 8003898:	b809883a 	mov	r4,r23
 800389c:	b00b883a 	mov	r5,r22
 80038a0:	1000181e 	bne	r2,zero,8003904 <pow+0x3f8>
 80038a4:	00b80034 	movhi	r2,57344
 80038a8:	d8800615 	stw	r2,24(sp)
 80038ac:	0091fc34 	movhi	r2,18416
 80038b0:	10bfffc4 	addi	r2,r2,-1
 80038b4:	d8800715 	stw	r2,28(sp)
 80038b8:	8007d080 	call	8007d08 <__ledf2>
 80038bc:	10001a16 	blt	r2,zero,8003928 <pow+0x41c>
 80038c0:	d809883a 	mov	r4,sp
 80038c4:	8004ed00 	call	8004ed0 <matherr>
 80038c8:	103f551e 	bne	r2,zero,8003620 <__alt_data_end+0xfc003620>
 80038cc:	800935c0 	call	800935c <__errno>
 80038d0:	00c00884 	movi	r3,34
 80038d4:	10c00015 	stw	r3,0(r2)
 80038d8:	003f5106 	br	8003620 <__alt_data_end+0xfc003620>
 80038dc:	000d883a 	mov	r6,zero
 80038e0:	000f883a 	mov	r7,zero
 80038e4:	0009883a 	mov	r4,zero
 80038e8:	000b883a 	mov	r5,zero
 80038ec:	80071d40 	call	80071d4 <__divdf3>
 80038f0:	d8800615 	stw	r2,24(sp)
 80038f4:	d8c00715 	stw	r3,28(sp)
 80038f8:	00800084 	movi	r2,2
 80038fc:	80bfaf26 	beq	r16,r2,80037bc <__alt_data_end+0xfc0037bc>
 8003900:	003fd006 	br	8003844 <__alt_data_end+0xfc003844>
 8003904:	009ffc34 	movhi	r2,32752
 8003908:	d8000615 	stw	zero,24(sp)
 800390c:	d8800715 	stw	r2,28(sp)
 8003910:	8007d080 	call	8007d08 <__ledf2>
 8003914:	10001a16 	blt	r2,zero,8003980 <pow+0x474>
 8003918:	90c00017 	ldw	r3,0(r18)
 800391c:	00800084 	movi	r2,2
 8003920:	18bfe71e 	bne	r3,r2,80038c0 <__alt_data_end+0xfc0038c0>
 8003924:	003fe906 	br	80038cc <__alt_data_end+0xfc0038cc>
 8003928:	000d883a 	mov	r6,zero
 800392c:	01cff834 	movhi	r7,16352
 8003930:	a809883a 	mov	r4,r21
 8003934:	a00b883a 	mov	r5,r20
 8003938:	8007dfc0 	call	8007dfc <__muldf3>
 800393c:	1009883a 	mov	r4,r2
 8003940:	180b883a 	mov	r5,r3
 8003944:	1023883a 	mov	r17,r2
 8003948:	1821883a 	mov	r16,r3
 800394c:	8004ee40 	call	8004ee4 <rint>
 8003950:	100d883a 	mov	r6,r2
 8003954:	180f883a 	mov	r7,r3
 8003958:	8809883a 	mov	r4,r17
 800395c:	800b883a 	mov	r5,r16
 8003960:	8007ba40 	call	8007ba4 <__eqdf2>
 8003964:	103fec26 	beq	r2,zero,8003918 <__alt_data_end+0xfc003918>
 8003968:	00b80034 	movhi	r2,57344
 800396c:	d8800615 	stw	r2,24(sp)
 8003970:	00b1fc34 	movhi	r2,51184
 8003974:	10bfffc4 	addi	r2,r2,-1
 8003978:	d8800715 	stw	r2,28(sp)
 800397c:	003fe606 	br	8003918 <__alt_data_end+0xfc003918>
 8003980:	000d883a 	mov	r6,zero
 8003984:	01cff834 	movhi	r7,16352
 8003988:	a809883a 	mov	r4,r21
 800398c:	a00b883a 	mov	r5,r20
 8003990:	8007dfc0 	call	8007dfc <__muldf3>
 8003994:	1009883a 	mov	r4,r2
 8003998:	180b883a 	mov	r5,r3
 800399c:	1023883a 	mov	r17,r2
 80039a0:	1821883a 	mov	r16,r3
 80039a4:	8004ee40 	call	8004ee4 <rint>
 80039a8:	100d883a 	mov	r6,r2
 80039ac:	180f883a 	mov	r7,r3
 80039b0:	8809883a 	mov	r4,r17
 80039b4:	800b883a 	mov	r5,r16
 80039b8:	8007ba40 	call	8007ba4 <__eqdf2>
 80039bc:	103fd626 	beq	r2,zero,8003918 <__alt_data_end+0xfc003918>
 80039c0:	00bffc34 	movhi	r2,65520
 80039c4:	d8000615 	stw	zero,24(sp)
 80039c8:	d8800715 	stw	r2,28(sp)
 80039cc:	003fd206 	br	8003918 <__alt_data_end+0xfc003918>

080039d0 <sqrt>:
 80039d0:	defff104 	addi	sp,sp,-60
 80039d4:	dd000d15 	stw	r20,52(sp)
 80039d8:	050200b4 	movhi	r20,2050
 80039dc:	dcc00c15 	stw	r19,48(sp)
 80039e0:	dc800b15 	stw	r18,44(sp)
 80039e4:	dc400a15 	stw	r17,40(sp)
 80039e8:	dc000915 	stw	r16,36(sp)
 80039ec:	dfc00e15 	stw	ra,56(sp)
 80039f0:	a5227a04 	addi	r20,r20,-30232
 80039f4:	2027883a 	mov	r19,r4
 80039f8:	2825883a 	mov	r18,r5
 80039fc:	8004ba40 	call	8004ba4 <__ieee754_sqrt>
 8003a00:	1821883a 	mov	r16,r3
 8003a04:	a0c00017 	ldw	r3,0(r20)
 8003a08:	1023883a 	mov	r17,r2
 8003a0c:	00bfffc4 	movi	r2,-1
 8003a10:	18800a26 	beq	r3,r2,8003a3c <sqrt+0x6c>
 8003a14:	9809883a 	mov	r4,r19
 8003a18:	900b883a 	mov	r5,r18
 8003a1c:	8004e5c0 	call	8004e5c <__fpclassifyd>
 8003a20:	10000626 	beq	r2,zero,8003a3c <sqrt+0x6c>
 8003a24:	000d883a 	mov	r6,zero
 8003a28:	000f883a 	mov	r7,zero
 8003a2c:	9809883a 	mov	r4,r19
 8003a30:	900b883a 	mov	r5,r18
 8003a34:	8007d080 	call	8007d08 <__ledf2>
 8003a38:	10000a16 	blt	r2,zero,8003a64 <sqrt+0x94>
 8003a3c:	8805883a 	mov	r2,r17
 8003a40:	8007883a 	mov	r3,r16
 8003a44:	dfc00e17 	ldw	ra,56(sp)
 8003a48:	dd000d17 	ldw	r20,52(sp)
 8003a4c:	dcc00c17 	ldw	r19,48(sp)
 8003a50:	dc800b17 	ldw	r18,44(sp)
 8003a54:	dc400a17 	ldw	r17,40(sp)
 8003a58:	dc000917 	ldw	r16,36(sp)
 8003a5c:	dec00f04 	addi	sp,sp,60
 8003a60:	f800283a 	ret
 8003a64:	00800044 	movi	r2,1
 8003a68:	d8800015 	stw	r2,0(sp)
 8003a6c:	a4000017 	ldw	r16,0(r20)
 8003a70:	00820074 	movhi	r2,2049
 8003a74:	109aec04 	addi	r2,r2,27568
 8003a78:	d8800115 	stw	r2,4(sp)
 8003a7c:	d8000815 	stw	zero,32(sp)
 8003a80:	dcc00415 	stw	r19,16(sp)
 8003a84:	dc800515 	stw	r18,20(sp)
 8003a88:	dcc00215 	stw	r19,8(sp)
 8003a8c:	dc800315 	stw	r18,12(sp)
 8003a90:	80000a1e 	bne	r16,zero,8003abc <sqrt+0xec>
 8003a94:	d8000615 	stw	zero,24(sp)
 8003a98:	d8000715 	stw	zero,28(sp)
 8003a9c:	d809883a 	mov	r4,sp
 8003aa0:	8004ed00 	call	8004ed0 <matherr>
 8003aa4:	10000e26 	beq	r2,zero,8003ae0 <sqrt+0x110>
 8003aa8:	d8800817 	ldw	r2,32(sp)
 8003aac:	1000101e 	bne	r2,zero,8003af0 <sqrt+0x120>
 8003ab0:	d8800617 	ldw	r2,24(sp)
 8003ab4:	d8c00717 	ldw	r3,28(sp)
 8003ab8:	003fe206 	br	8003a44 <__alt_data_end+0xfc003a44>
 8003abc:	000d883a 	mov	r6,zero
 8003ac0:	000f883a 	mov	r7,zero
 8003ac4:	0009883a 	mov	r4,zero
 8003ac8:	000b883a 	mov	r5,zero
 8003acc:	80071d40 	call	80071d4 <__divdf3>
 8003ad0:	d8800615 	stw	r2,24(sp)
 8003ad4:	d8c00715 	stw	r3,28(sp)
 8003ad8:	00800084 	movi	r2,2
 8003adc:	80bfef1e 	bne	r16,r2,8003a9c <__alt_data_end+0xfc003a9c>
 8003ae0:	800935c0 	call	800935c <__errno>
 8003ae4:	00c00844 	movi	r3,33
 8003ae8:	10c00015 	stw	r3,0(r2)
 8003aec:	003fee06 	br	8003aa8 <__alt_data_end+0xfc003aa8>
 8003af0:	800935c0 	call	800935c <__errno>
 8003af4:	d8c00817 	ldw	r3,32(sp)
 8003af8:	10c00015 	stw	r3,0(r2)
 8003afc:	003fec06 	br	8003ab0 <__alt_data_end+0xfc003ab0>

08003b00 <__ieee754_pow>:
 8003b00:	00a00034 	movhi	r2,32768
 8003b04:	deffea04 	addi	sp,sp,-88
 8003b08:	10bfffc4 	addi	r2,r2,-1
 8003b0c:	dc800e15 	stw	r18,56(sp)
 8003b10:	38a4703a 	and	r18,r7,r2
 8003b14:	dfc01515 	stw	ra,84(sp)
 8003b18:	df001415 	stw	fp,80(sp)
 8003b1c:	ddc01315 	stw	r23,76(sp)
 8003b20:	dd801215 	stw	r22,72(sp)
 8003b24:	dd401115 	stw	r21,68(sp)
 8003b28:	dd001015 	stw	r20,64(sp)
 8003b2c:	dcc00f15 	stw	r19,60(sp)
 8003b30:	dc400d15 	stw	r17,52(sp)
 8003b34:	dc000c15 	stw	r16,48(sp)
 8003b38:	9186b03a 	or	r3,r18,r6
 8003b3c:	18002a26 	beq	r3,zero,8003be8 <__ieee754_pow+0xe8>
 8003b40:	28a2703a 	and	r17,r5,r2
 8003b44:	009ffc34 	movhi	r2,32752
 8003b48:	14402316 	blt	r2,r17,8003bd8 <__ieee754_pow+0xd8>
 8003b4c:	88802126 	beq	r17,r2,8003bd4 <__ieee754_pow+0xd4>
 8003b50:	14802116 	blt	r2,r18,8003bd8 <__ieee754_pow+0xd8>
 8003b54:	009ffc34 	movhi	r2,32752
 8003b58:	90807326 	beq	r18,r2,8003d28 <__ieee754_pow+0x228>
 8003b5c:	2827883a 	mov	r19,r5
 8003b60:	2021883a 	mov	r16,r4
 8003b64:	302d883a 	mov	r22,r6
 8003b68:	3839883a 	mov	fp,r7
 8003b6c:	28007016 	blt	r5,zero,8003d30 <__ieee754_pow+0x230>
 8003b70:	002b883a 	mov	r21,zero
 8003b74:	b0003a1e 	bne	r22,zero,8003c60 <__ieee754_pow+0x160>
 8003b78:	009ffc34 	movhi	r2,32752
 8003b7c:	90807f26 	beq	r18,r2,8003d7c <__ieee754_pow+0x27c>
 8003b80:	008ffc34 	movhi	r2,16368
 8003b84:	90805426 	beq	r18,r2,8003cd8 <__ieee754_pow+0x1d8>
 8003b88:	00900034 	movhi	r2,16384
 8003b8c:	e0833b26 	beq	fp,r2,800487c <__ieee754_pow+0xd7c>
 8003b90:	008ff834 	movhi	r2,16352
 8003b94:	e080321e 	bne	fp,r2,8003c60 <__ieee754_pow+0x160>
 8003b98:	98003116 	blt	r19,zero,8003c60 <__ieee754_pow+0x160>
 8003b9c:	8009883a 	mov	r4,r16
 8003ba0:	980b883a 	mov	r5,r19
 8003ba4:	dfc01517 	ldw	ra,84(sp)
 8003ba8:	df001417 	ldw	fp,80(sp)
 8003bac:	ddc01317 	ldw	r23,76(sp)
 8003bb0:	dd801217 	ldw	r22,72(sp)
 8003bb4:	dd401117 	ldw	r21,68(sp)
 8003bb8:	dd001017 	ldw	r20,64(sp)
 8003bbc:	dcc00f17 	ldw	r19,60(sp)
 8003bc0:	dc800e17 	ldw	r18,56(sp)
 8003bc4:	dc400d17 	ldw	r17,52(sp)
 8003bc8:	dc000c17 	ldw	r16,48(sp)
 8003bcc:	dec01604 	addi	sp,sp,88
 8003bd0:	8004ba41 	jmpi	8004ba4 <__ieee754_sqrt>
 8003bd4:	20001226 	beq	r4,zero,8003c20 <__ieee754_pow+0x120>
 8003bd8:	00b00434 	movhi	r2,49168
 8003bdc:	8885883a 	add	r2,r17,r2
 8003be0:	1108b03a 	or	r4,r2,r4
 8003be4:	20000f1e 	bne	r4,zero,8003c24 <__ieee754_pow+0x124>
 8003be8:	0005883a 	mov	r2,zero
 8003bec:	00cffc34 	movhi	r3,16368
 8003bf0:	dfc01517 	ldw	ra,84(sp)
 8003bf4:	df001417 	ldw	fp,80(sp)
 8003bf8:	ddc01317 	ldw	r23,76(sp)
 8003bfc:	dd801217 	ldw	r22,72(sp)
 8003c00:	dd401117 	ldw	r21,68(sp)
 8003c04:	dd001017 	ldw	r20,64(sp)
 8003c08:	dcc00f17 	ldw	r19,60(sp)
 8003c0c:	dc800e17 	ldw	r18,56(sp)
 8003c10:	dc400d17 	ldw	r17,52(sp)
 8003c14:	dc000c17 	ldw	r16,48(sp)
 8003c18:	dec01604 	addi	sp,sp,88
 8003c1c:	f800283a 	ret
 8003c20:	8cbfcc0e 	bge	r17,r18,8003b54 <__alt_data_end+0xfc003b54>
 8003c24:	01020074 	movhi	r4,2049
 8003c28:	211b3c04 	addi	r4,r4,27888
 8003c2c:	dfc01517 	ldw	ra,84(sp)
 8003c30:	df001417 	ldw	fp,80(sp)
 8003c34:	ddc01317 	ldw	r23,76(sp)
 8003c38:	dd801217 	ldw	r22,72(sp)
 8003c3c:	dd401117 	ldw	r21,68(sp)
 8003c40:	dd001017 	ldw	r20,64(sp)
 8003c44:	dcc00f17 	ldw	r19,60(sp)
 8003c48:	dc800e17 	ldw	r18,56(sp)
 8003c4c:	dc400d17 	ldw	r17,52(sp)
 8003c50:	dc000c17 	ldw	r16,48(sp)
 8003c54:	dec01604 	addi	sp,sp,88
 8003c58:	8004ed81 	jmpi	8004ed8 <nan>
 8003c5c:	002b883a 	mov	r21,zero
 8003c60:	8009883a 	mov	r4,r16
 8003c64:	980b883a 	mov	r5,r19
 8003c68:	8004e2c0 	call	8004e2c <fabs>
 8003c6c:	102f883a 	mov	r23,r2
 8003c70:	80000f26 	beq	r16,zero,8003cb0 <__ieee754_pow+0x1b0>
 8003c74:	9816d7fa 	srli	r11,r19,31
 8003c78:	5affffc4 	addi	r11,r11,-1
 8003c7c:	aac4b03a 	or	r2,r21,r11
 8003c80:	10004b26 	beq	r2,zero,8003db0 <__ieee754_pow+0x2b0>
 8003c84:	00907834 	movhi	r2,16864
 8003c88:	1480540e 	bge	r2,r18,8003ddc <__ieee754_pow+0x2dc>
 8003c8c:	0090fc34 	movhi	r2,17392
 8003c90:	14832d0e 	bge	r2,r18,8004948 <__ieee754_pow+0xe48>
 8003c94:	008ffc34 	movhi	r2,16368
 8003c98:	10bfffc4 	addi	r2,r2,-1
 8003c9c:	14401916 	blt	r2,r17,8003d04 <__ieee754_pow+0x204>
 8003ca0:	e0001916 	blt	fp,zero,8003d08 <__ieee754_pow+0x208>
 8003ca4:	0005883a 	mov	r2,zero
 8003ca8:	0007883a 	mov	r3,zero
 8003cac:	003fd006 	br	8003bf0 <__alt_data_end+0xfc003bf0>
 8003cb0:	88000526 	beq	r17,zero,8003cc8 <__ieee754_pow+0x1c8>
 8003cb4:	00900034 	movhi	r2,16384
 8003cb8:	10bfffc4 	addi	r2,r2,-1
 8003cbc:	9884703a 	and	r2,r19,r2
 8003cc0:	010ffc34 	movhi	r4,16368
 8003cc4:	113feb1e 	bne	r2,r4,8003c74 <__alt_data_end+0xfc003c74>
 8003cc8:	e0000716 	blt	fp,zero,8003ce8 <__ieee754_pow+0x1e8>
 8003ccc:	9802e216 	blt	r19,zero,8004858 <__ieee754_pow+0xd58>
 8003cd0:	b805883a 	mov	r2,r23
 8003cd4:	003fc606 	br	8003bf0 <__alt_data_end+0xfc003bf0>
 8003cd8:	e0037516 	blt	fp,zero,8004ab0 <__ieee754_pow+0xfb0>
 8003cdc:	8005883a 	mov	r2,r16
 8003ce0:	9807883a 	mov	r3,r19
 8003ce4:	003fc206 	br	8003bf0 <__alt_data_end+0xfc003bf0>
 8003ce8:	b80d883a 	mov	r6,r23
 8003cec:	180f883a 	mov	r7,r3
 8003cf0:	0009883a 	mov	r4,zero
 8003cf4:	014ffc34 	movhi	r5,16368
 8003cf8:	80071d40 	call	80071d4 <__divdf3>
 8003cfc:	102f883a 	mov	r23,r2
 8003d00:	003ff206 	br	8003ccc <__alt_data_end+0xfc003ccc>
 8003d04:	073fe70e 	bge	zero,fp,8003ca4 <__alt_data_end+0xfc003ca4>
 8003d08:	01a20034 	movhi	r6,34816
 8003d0c:	01df8e34 	movhi	r7,32312
 8003d10:	319d6704 	addi	r6,r6,30108
 8003d14:	39f90f04 	addi	r7,r7,-7108
 8003d18:	3009883a 	mov	r4,r6
 8003d1c:	380b883a 	mov	r5,r7
 8003d20:	8007dfc0 	call	8007dfc <__muldf3>
 8003d24:	003fb206 	br	8003bf0 <__alt_data_end+0xfc003bf0>
 8003d28:	303f8c26 	beq	r6,zero,8003b5c <__alt_data_end+0xfc003b5c>
 8003d2c:	003faa06 	br	8003bd8 <__alt_data_end+0xfc003bd8>
 8003d30:	0090d034 	movhi	r2,17216
 8003d34:	10bfffc4 	addi	r2,r2,-1
 8003d38:	14801b16 	blt	r2,r18,8003da8 <__ieee754_pow+0x2a8>
 8003d3c:	008ffc34 	movhi	r2,16368
 8003d40:	10bfffc4 	addi	r2,r2,-1
 8003d44:	14bf8a0e 	bge	r2,r18,8003b70 <__alt_data_end+0xfc003b70>
 8003d48:	9005d53a 	srai	r2,r18,20
 8003d4c:	00c00504 	movi	r3,20
 8003d50:	10bf0044 	addi	r2,r2,-1023
 8003d54:	18836b0e 	bge	r3,r2,8004b04 <__ieee754_pow+0x1004>
 8003d58:	00c00d04 	movi	r3,52
 8003d5c:	1885c83a 	sub	r2,r3,r2
 8003d60:	3086d83a 	srl	r3,r6,r2
 8003d64:	1884983a 	sll	r2,r3,r2
 8003d68:	30bf811e 	bne	r6,r2,8003b70 <__alt_data_end+0xfc003b70>
 8003d6c:	18c0004c 	andi	r3,r3,1
 8003d70:	02800084 	movi	r10,2
 8003d74:	50ebc83a 	sub	r21,r10,r3
 8003d78:	003f7e06 	br	8003b74 <__alt_data_end+0xfc003b74>
 8003d7c:	01300434 	movhi	r4,49168
 8003d80:	8909883a 	add	r4,r17,r4
 8003d84:	2408b03a 	or	r4,r4,r16
 8003d88:	203f9726 	beq	r4,zero,8003be8 <__alt_data_end+0xfc003be8>
 8003d8c:	008ffc34 	movhi	r2,16368
 8003d90:	10bfffc4 	addi	r2,r2,-1
 8003d94:	1442e60e 	bge	r2,r17,8004930 <__ieee754_pow+0xe30>
 8003d98:	e03fc216 	blt	fp,zero,8003ca4 <__alt_data_end+0xfc003ca4>
 8003d9c:	0005883a 	mov	r2,zero
 8003da0:	e007883a 	mov	r3,fp
 8003da4:	003f9206 	br	8003bf0 <__alt_data_end+0xfc003bf0>
 8003da8:	05400084 	movi	r21,2
 8003dac:	003f7106 	br	8003b74 <__alt_data_end+0xfc003b74>
 8003db0:	800d883a 	mov	r6,r16
 8003db4:	980f883a 	mov	r7,r19
 8003db8:	3009883a 	mov	r4,r6
 8003dbc:	380b883a 	mov	r5,r7
 8003dc0:	80086680 	call	8008668 <__subdf3>
 8003dc4:	100d883a 	mov	r6,r2
 8003dc8:	180f883a 	mov	r7,r3
 8003dcc:	1009883a 	mov	r4,r2
 8003dd0:	180b883a 	mov	r5,r3
 8003dd4:	80071d40 	call	80071d4 <__divdf3>
 8003dd8:	003f8506 	br	8003bf0 <__alt_data_end+0xfc003bf0>
 8003ddc:	00800434 	movhi	r2,16
 8003de0:	10bfffc4 	addi	r2,r2,-1
 8003de4:	1442d616 	blt	r2,r17,8004940 <__ieee754_pow+0xe40>
 8003de8:	b809883a 	mov	r4,r23
 8003dec:	000d883a 	mov	r6,zero
 8003df0:	01d0d034 	movhi	r7,17216
 8003df4:	180b883a 	mov	r5,r3
 8003df8:	dac00b15 	stw	r11,44(sp)
 8003dfc:	8007dfc0 	call	8007dfc <__muldf3>
 8003e00:	dac00b17 	ldw	r11,44(sp)
 8003e04:	102f883a 	mov	r23,r2
 8003e08:	1823883a 	mov	r17,r3
 8003e0c:	033ff2c4 	movi	r12,-53
 8003e10:	8807d53a 	srai	r3,r17,20
 8003e14:	00800434 	movhi	r2,16
 8003e18:	10bfffc4 	addi	r2,r2,-1
 8003e1c:	18ff0044 	addi	r3,r3,-1023
 8003e20:	1b19883a 	add	r12,r3,r12
 8003e24:	00c00134 	movhi	r3,4
 8003e28:	8884703a 	and	r2,r17,r2
 8003e2c:	18e62384 	addi	r3,r3,-26482
 8003e30:	150ffc34 	orhi	r20,r2,16368
 8003e34:	1880060e 	bge	r3,r2,8003e50 <__ieee754_pow+0x350>
 8003e38:	00c00334 	movhi	r3,12
 8003e3c:	18ed9e44 	addi	r3,r3,-18823
 8003e40:	18833f0e 	bge	r3,r2,8004b40 <__ieee754_pow+0x1040>
 8003e44:	00bffc34 	movhi	r2,65520
 8003e48:	63000044 	addi	r12,r12,1
 8003e4c:	a0a9883a 	add	r20,r20,r2
 8003e50:	0027883a 	mov	r19,zero
 8003e54:	d8000215 	stw	zero,8(sp)
 8003e58:	0013883a 	mov	r9,zero
 8003e5c:	0011883a 	mov	r8,zero
 8003e60:	0015883a 	mov	r10,zero
 8003e64:	048ffc34 	movhi	r18,16368
 8003e68:	900f883a 	mov	r7,r18
 8003e6c:	b809883a 	mov	r4,r23
 8003e70:	a00b883a 	mov	r5,r20
 8003e74:	000d883a 	mov	r6,zero
 8003e78:	da000a15 	stw	r8,40(sp)
 8003e7c:	da400815 	stw	r9,32(sp)
 8003e80:	dac00b15 	stw	r11,44(sp)
 8003e84:	db000915 	stw	r12,36(sp)
 8003e88:	da800515 	stw	r10,20(sp)
 8003e8c:	80086680 	call	8008668 <__subdf3>
 8003e90:	b809883a 	mov	r4,r23
 8003e94:	a00b883a 	mov	r5,r20
 8003e98:	900f883a 	mov	r7,r18
 8003e9c:	000d883a 	mov	r6,zero
 8003ea0:	d8800015 	stw	r2,0(sp)
 8003ea4:	d8c00115 	stw	r3,4(sp)
 8003ea8:	80069280 	call	8006928 <__adddf3>
 8003eac:	100d883a 	mov	r6,r2
 8003eb0:	180f883a 	mov	r7,r3
 8003eb4:	0009883a 	mov	r4,zero
 8003eb8:	014ffc34 	movhi	r5,16368
 8003ebc:	80071d40 	call	80071d4 <__divdf3>
 8003ec0:	d9000017 	ldw	r4,0(sp)
 8003ec4:	d9400117 	ldw	r5,4(sp)
 8003ec8:	100d883a 	mov	r6,r2
 8003ecc:	180f883a 	mov	r7,r3
 8003ed0:	d8c00715 	stw	r3,28(sp)
 8003ed4:	d8800615 	stw	r2,24(sp)
 8003ed8:	8007dfc0 	call	8007dfc <__muldf3>
 8003edc:	1023883a 	mov	r17,r2
 8003ee0:	a005d07a 	srai	r2,r20,1
 8003ee4:	da800517 	ldw	r10,20(sp)
 8003ee8:	1821883a 	mov	r16,r3
 8003eec:	10c80034 	orhi	r3,r2,8192
 8003ef0:	00800234 	movhi	r2,8
 8003ef4:	1885883a 	add	r2,r3,r2
 8003ef8:	1295883a 	add	r10,r2,r10
 8003efc:	500f883a 	mov	r7,r10
 8003f00:	800b883a 	mov	r5,r16
 8003f04:	000d883a 	mov	r6,zero
 8003f08:	0009883a 	mov	r4,zero
 8003f0c:	da800515 	stw	r10,20(sp)
 8003f10:	8007dfc0 	call	8007dfc <__muldf3>
 8003f14:	d9000017 	ldw	r4,0(sp)
 8003f18:	d9400117 	ldw	r5,4(sp)
 8003f1c:	100d883a 	mov	r6,r2
 8003f20:	180f883a 	mov	r7,r3
 8003f24:	80086680 	call	8008668 <__subdf3>
 8003f28:	da800517 	ldw	r10,20(sp)
 8003f2c:	900f883a 	mov	r7,r18
 8003f30:	000d883a 	mov	r6,zero
 8003f34:	500b883a 	mov	r5,r10
 8003f38:	0009883a 	mov	r4,zero
 8003f3c:	d8800015 	stw	r2,0(sp)
 8003f40:	d8c00515 	stw	r3,20(sp)
 8003f44:	80086680 	call	8008668 <__subdf3>
 8003f48:	b809883a 	mov	r4,r23
 8003f4c:	a00b883a 	mov	r5,r20
 8003f50:	100d883a 	mov	r6,r2
 8003f54:	180f883a 	mov	r7,r3
 8003f58:	80086680 	call	8008668 <__subdf3>
 8003f5c:	800f883a 	mov	r7,r16
 8003f60:	000d883a 	mov	r6,zero
 8003f64:	1009883a 	mov	r4,r2
 8003f68:	180b883a 	mov	r5,r3
 8003f6c:	8007dfc0 	call	8007dfc <__muldf3>
 8003f70:	db400517 	ldw	r13,20(sp)
 8003f74:	d9000017 	ldw	r4,0(sp)
 8003f78:	100d883a 	mov	r6,r2
 8003f7c:	680b883a 	mov	r5,r13
 8003f80:	180f883a 	mov	r7,r3
 8003f84:	80086680 	call	8008668 <__subdf3>
 8003f88:	dbc00617 	ldw	r15,24(sp)
 8003f8c:	db800717 	ldw	r14,28(sp)
 8003f90:	1009883a 	mov	r4,r2
 8003f94:	780d883a 	mov	r6,r15
 8003f98:	700f883a 	mov	r7,r14
 8003f9c:	180b883a 	mov	r5,r3
 8003fa0:	8007dfc0 	call	8007dfc <__muldf3>
 8003fa4:	880d883a 	mov	r6,r17
 8003fa8:	800f883a 	mov	r7,r16
 8003fac:	8809883a 	mov	r4,r17
 8003fb0:	800b883a 	mov	r5,r16
 8003fb4:	d8800015 	stw	r2,0(sp)
 8003fb8:	d8c00115 	stw	r3,4(sp)
 8003fbc:	8007dfc0 	call	8007dfc <__muldf3>
 8003fc0:	01929174 	movhi	r6,19013
 8003fc4:	01cff2b4 	movhi	r7,16330
 8003fc8:	3193bbc4 	addi	r6,r6,20207
 8003fcc:	39df8a04 	addi	r7,r7,32296
 8003fd0:	1009883a 	mov	r4,r2
 8003fd4:	180b883a 	mov	r5,r3
 8003fd8:	102f883a 	mov	r23,r2
 8003fdc:	1829883a 	mov	r20,r3
 8003fe0:	8007dfc0 	call	8007dfc <__muldf3>
 8003fe4:	01a4f2b4 	movhi	r6,37834
 8003fe8:	01cff3b4 	movhi	r7,16334
 8003fec:	31b6d944 	addi	r6,r6,-9371
 8003ff0:	39e19284 	addi	r7,r7,-31158
 8003ff4:	1009883a 	mov	r4,r2
 8003ff8:	180b883a 	mov	r5,r3
 8003ffc:	80069280 	call	8006928 <__adddf3>
 8004000:	b80d883a 	mov	r6,r23
 8004004:	a00f883a 	mov	r7,r20
 8004008:	1009883a 	mov	r4,r2
 800400c:	180b883a 	mov	r5,r3
 8004010:	8007dfc0 	call	8007dfc <__muldf3>
 8004014:	01aa4774 	movhi	r6,43293
 8004018:	01cff474 	movhi	r7,16337
 800401c:	31904044 	addi	r6,r6,16641
 8004020:	39dd1804 	addi	r7,r7,29792
 8004024:	1009883a 	mov	r4,r2
 8004028:	180b883a 	mov	r5,r3
 800402c:	80069280 	call	8006928 <__adddf3>
 8004030:	b80d883a 	mov	r6,r23
 8004034:	a00f883a 	mov	r7,r20
 8004038:	1009883a 	mov	r4,r2
 800403c:	180b883a 	mov	r5,r3
 8004040:	8007dfc0 	call	8007dfc <__muldf3>
 8004044:	019463f4 	movhi	r6,20879
 8004048:	01cff574 	movhi	r7,16341
 800404c:	31899344 	addi	r6,r6,9805
 8004050:	39d55544 	addi	r7,r7,21845
 8004054:	1009883a 	mov	r4,r2
 8004058:	180b883a 	mov	r5,r3
 800405c:	80069280 	call	8006928 <__adddf3>
 8004060:	b80d883a 	mov	r6,r23
 8004064:	a00f883a 	mov	r7,r20
 8004068:	1009883a 	mov	r4,r2
 800406c:	180b883a 	mov	r5,r3
 8004070:	8007dfc0 	call	8007dfc <__muldf3>
 8004074:	01b6dc34 	movhi	r6,56176
 8004078:	01cff6f4 	movhi	r7,16347
 800407c:	31aaffc4 	addi	r6,r6,-21505
 8004080:	39db6d84 	addi	r7,r7,28086
 8004084:	1009883a 	mov	r4,r2
 8004088:	180b883a 	mov	r5,r3
 800408c:	80069280 	call	8006928 <__adddf3>
 8004090:	b80d883a 	mov	r6,r23
 8004094:	a00f883a 	mov	r7,r20
 8004098:	1009883a 	mov	r4,r2
 800409c:	180b883a 	mov	r5,r3
 80040a0:	8007dfc0 	call	8007dfc <__muldf3>
 80040a4:	018cccf4 	movhi	r6,13107
 80040a8:	01cff8f4 	movhi	r7,16355
 80040ac:	318cc0c4 	addi	r6,r6,13059
 80040b0:	39ccccc4 	addi	r7,r7,13107
 80040b4:	1009883a 	mov	r4,r2
 80040b8:	180b883a 	mov	r5,r3
 80040bc:	80069280 	call	8006928 <__adddf3>
 80040c0:	b80d883a 	mov	r6,r23
 80040c4:	a00f883a 	mov	r7,r20
 80040c8:	b809883a 	mov	r4,r23
 80040cc:	a00b883a 	mov	r5,r20
 80040d0:	1825883a 	mov	r18,r3
 80040d4:	d8800515 	stw	r2,20(sp)
 80040d8:	8007dfc0 	call	8007dfc <__muldf3>
 80040dc:	db400517 	ldw	r13,20(sp)
 80040e0:	900b883a 	mov	r5,r18
 80040e4:	100d883a 	mov	r6,r2
 80040e8:	6809883a 	mov	r4,r13
 80040ec:	180f883a 	mov	r7,r3
 80040f0:	8007dfc0 	call	8007dfc <__muldf3>
 80040f4:	800f883a 	mov	r7,r16
 80040f8:	8809883a 	mov	r4,r17
 80040fc:	800b883a 	mov	r5,r16
 8004100:	000d883a 	mov	r6,zero
 8004104:	102f883a 	mov	r23,r2
 8004108:	1829883a 	mov	r20,r3
 800410c:	80069280 	call	8006928 <__adddf3>
 8004110:	d9800017 	ldw	r6,0(sp)
 8004114:	d9c00117 	ldw	r7,4(sp)
 8004118:	1009883a 	mov	r4,r2
 800411c:	180b883a 	mov	r5,r3
 8004120:	8007dfc0 	call	8007dfc <__muldf3>
 8004124:	b80d883a 	mov	r6,r23
 8004128:	a00f883a 	mov	r7,r20
 800412c:	1009883a 	mov	r4,r2
 8004130:	180b883a 	mov	r5,r3
 8004134:	80069280 	call	8006928 <__adddf3>
 8004138:	800f883a 	mov	r7,r16
 800413c:	800b883a 	mov	r5,r16
 8004140:	000d883a 	mov	r6,zero
 8004144:	0009883a 	mov	r4,zero
 8004148:	1025883a 	mov	r18,r2
 800414c:	182f883a 	mov	r23,r3
 8004150:	8007dfc0 	call	8007dfc <__muldf3>
 8004154:	000d883a 	mov	r6,zero
 8004158:	01d00234 	movhi	r7,16392
 800415c:	1009883a 	mov	r4,r2
 8004160:	180b883a 	mov	r5,r3
 8004164:	d8c00715 	stw	r3,28(sp)
 8004168:	d8800615 	stw	r2,24(sp)
 800416c:	80069280 	call	8006928 <__adddf3>
 8004170:	900d883a 	mov	r6,r18
 8004174:	b80f883a 	mov	r7,r23
 8004178:	1009883a 	mov	r4,r2
 800417c:	180b883a 	mov	r5,r3
 8004180:	80069280 	call	8006928 <__adddf3>
 8004184:	800b883a 	mov	r5,r16
 8004188:	000d883a 	mov	r6,zero
 800418c:	180f883a 	mov	r7,r3
 8004190:	0009883a 	mov	r4,zero
 8004194:	1829883a 	mov	r20,r3
 8004198:	8007dfc0 	call	8007dfc <__muldf3>
 800419c:	a00b883a 	mov	r5,r20
 80041a0:	000d883a 	mov	r6,zero
 80041a4:	01d00234 	movhi	r7,16392
 80041a8:	0009883a 	mov	r4,zero
 80041ac:	d8800315 	stw	r2,12(sp)
 80041b0:	d8c00415 	stw	r3,16(sp)
 80041b4:	80086680 	call	8008668 <__subdf3>
 80041b8:	dbc00617 	ldw	r15,24(sp)
 80041bc:	db800717 	ldw	r14,28(sp)
 80041c0:	1009883a 	mov	r4,r2
 80041c4:	780d883a 	mov	r6,r15
 80041c8:	700f883a 	mov	r7,r14
 80041cc:	180b883a 	mov	r5,r3
